(dp0
Vcom.htc.cloudstorage.drive
p1
S'Unknown'
p2
sVcom.ikea.catalogue.android
p3
S'Lifestyle'
p4
sVcom.lsdroid.cerberus
p5
S'Productivity'
p6
sVcom.lenovomobile.deskclock
p7
S'Unknown'
p8
sVcom.kncwallet.wallet
p9
S'Finance'
p10
sVcom.mobileaction.TclAgent
p11
S'Unknown'
p12
sVorg.linphone
p13
S'Communication'
p14
sVcom.fring
p15
S'Communication'
p16
sVcom.google.chromeremotedesktop
p17
S'Tools'
p18
sVcom.sec.android.app.translator
p19
S'Unknown'
p20
sVcom.rsc.wifiathome
p21
S'Unknown'
p22
sVcom.codesector.calendar
p23
S'Productivity'
p24
sVcom.lge.dmf.admin
p25
S'Unknown'
p26
sVcom.samsung.inputmethod
p27
S'Unknown'
p28
sVcom.project.memoryerrorguard
p29
S'Tools'
p30
sVcom.singtao.iread.headline
p31
S'News &amp; Magazines'
p32
sVcom.trimble.outdoors.navapp.android
p33
S'Travel &amp; Local'
p34
sVcom.rb.wifiwidget
p35
S'Tools'
p36
sVcom.moblynx.cameraics
p37
S'Photography'
p38
sVcom.sec.android.app.camera
p39
S'Unknown'
p40
sVcom.lge.tv.remoteapps
p41
S'Entertainment'
p42
sVjp.gr.java_conf.hanitaro.tide
p43
S'Weather'
p44
sVcom.miui.providers.datahub
p45
S'Unknown'
p46
sVcom.lge.smartshare
p47
S'Unknown'
p48
sVdp.ws.popcorntime
p49
S'Unknown'
p50
sVcom.todoist
p51
S'Productivity'
p52
sVcom.blizzard.bma
p53
S'Entertainment'
p54
sVcom.htc.cs.dm
p55
S'Unknown'
p56
sVcom.stackexchange.marvin
p57
S'Social'
p58
sVkr.sira.measure
p59
S'Tools'
p60
sVcom.intsig.lic.camscanner
p61
S'Productivity'
p62
sVcom.sec.android.band
p63
S'Unknown'
p64
sVcom.ballerapps.slidingexplorer
p65
S'Tools'
p66
sVcom.SagiL.calendarstatuspro
p67
S'Productivity'
p68
sVcom.in.spd.filmyratings
p69
S'Unknown'
p70
sVcom.samsung.android.app.accesscontrol
p71
S'Unknown'
p72
sVcom.sec.android.widgetapp.analogclockunique
p73
S'Unknown'
p74
sVemp.hbu.ro
p75
S'Unknown'
p76
sVcom.my186soft.filemanager
p77
S'Unknown'
p78
sVcom.sec.android.app.phoneutil
p79
S'Unknown'
p80
sVcom.sonymobile.advancedwidget.sonyselect
p81
S'Unknown'
p82
sVcom.speedsoftware.rootexplorer
p83
S'Productivity'
p84
sVcom.bam.android.inspirelauncher
p85
S'Personalization'
p86
sVcom.iYOK.AngleMeterV10
p87
S'Tools'
p88
sVcom.mgyapp.android
p89
S'Unknown'
p90
sVcom.frogmind.badland
p91
S'Adventure'
p92
sVcom.medisafe.android.client
p93
S'Health &amp; Fitness'
p94
sVcom.sonyericsson.settings
p95
S'Unknown'
p96
sVcom.bitdefender.clueful
p97
S'Tools'
p98
sVcom.coverscreen.cover
p99
S'Personalization'
p100
sVdk.dsl.ordnet.ods
p101
S'Books &amp; Reference'
p102
sVcom.pantech.app.skyusimcontacts
p103
S'Unknown'
p104
sVcom.andrew.apollo
p105
S'Unknown'
p106
sVcom.acer.android.widget.digitalclock2
p107
S'Weather'
p108
sVnet.downsouthcustoms.trackitdeluxe
p109
S'Weather'
p110
sVcom.smartthings.android
p111
S'Lifestyle'
p112
sVcom.nuance.nmc.sihome.metropcs
p113
S'Tools'
p114
sVcom.philips.lighting.hue
p115
S'Lifestyle'
p116
sVcom.mseven.msecure
p117
S'Productivity'
p118
sVcom.studiokuma.businfo.android.pro
p119
S'Travel &amp; Local'
p120
sVcom.sonymobile.mx.android
p121
S'Unknown'
p122
sVat.mroland.android.apps.nfctaginfo
p123
S'Tools'
p124
sVcom.appspot.swisscodemonkeys.bald
p125
S'Entertainment'
p126
sVcom.ghvandoorn.Raindar
p127
S'Weather'
p128
sVnl.schoolmaster.meta
p129
S'Education'
p130
sVcom.android.smspush
p131
S'Unknown'
p132
sVcom.android.music
p133
S'Unknown'
p134
sVcom.sec.android.app.parser
p135
S'Unknown'
p136
sVjp.co.omronsoft.iwnnime.ml
p137
S'Tools'
p138
sVcom.google.android.configupdater
p139
S'Unknown'
p140
sVcom.motorola.android.buacontactadapter
p141
S'Unknown'
p142
sVorg.fox.ttrss
p143
S'News &amp; Magazines'
p144
sVcom.motorola.camera
p145
S'Tools'
p146
sVcom.android.browser
p147
S'Unknown'
p148
sVair.au.com.metro.DumbWaysToDie
p149
S'Casual'
p150
sVcom.vertile.onecast
p151
S'Entertainment'
p152
sVcom.sec.android.app.mv.player
p153
S'Unknown'
p154
sVcom.sec.android.app.mobileprint
p155
S'Unknown'
p156
sVcom.lifevibes.trimapp
p157
S'Unknown'
p158
sVcom.Tobit.android.Slitte6414812160
p159
S'Unknown'
p160
sVcom.h3r3t1c.bkrestore
p161
S'Tools'
p162
sVcom.goodmooddroid.gesturecontroldemo
p163
S'Tools'
p164
sVcom.synology.dsvideo
p165
S'Media &amp; Video'
p166
sVcom.yellowpages.android.ypmobile
p167
S'Travel &amp; Local'
p168
sVcom.kt.wifi
p169
S'Unknown'
p170
sVcom.a0soft.gphone.app2sd
p171
S'Tools'
p172
sVcom.aware.plugin.noise_level
p173
S'Unknown'
p174
sVcom.bvalosek.cpuspy.realgpp
p175
S'Tools'
p176
sVcom.c51
p177
S'Shopping'
p178
sVde.telekom.mdm
p179
S'Tools'
p180
sVcom.creativemobile.DragRacing
p181
S'Racing'
p182
sVcom.bubblesoft.android.gmusicfs
p183
S'Unknown'
p184
sVcom.shield.myspeedmeter
p185
S'Tools'
p186
sVcom.sonyericsson.vendor.backuprestore
p187
S'Unknown'
p188
sVcom.tdevaux.googleurlshortener
p189
S'Productivity'
p190
sVcom.urbandroid.sleep
p191
S'Lifestyle'
p192
sVcom.hetverkeer.info
p193
S'Travel &amp; Local'
p194
sVcom.roamingsoft.manager
p195
S'Tools'
p196
sVandroid.rockchip.update.service
p197
S'Unknown'
p198
sVcom.sonymobile.drm.ui
p199
S'Unknown'
p200
sS'com.pixelberrystudios.hwuandroid'
p201
S'Simulation'
p202
sVcom.google.android.apps.chrometophone
p203
S'Tools'
p204
sVcom.android.settingsaccessibility
p205
S'Unknown'
p206
sVcom.mjs.countemblackjack2
p207
S'Card'
p208
sVorg.codeaurora.bluetooth
p209
S'Unknown'
p210
sVcom.sonymobile.xperialink
p211
S'Communication'
p212
sVcom.sonyericsson.android.addoncamera.artfilter
p213
S'Unknown'
p214
sVcom.samsung.groupcast
p215
S'Business'
p216
sVcom.lenovo.anyshare
p217
S'Unknown'
p218
sVcom.appspot.scruffapp
p219
S'Social'
p220
sVcom.googlecode.droidwall.free
p221
S'Tools'
p222
sVcom.thinkyeah.smartlockfree
p223
S'Tools'
p224
sVcom.jrdcom.audiofx
p225
S'Unknown'
p226
sVcom.digibites.calendar
p227
S'Productivity'
p228
sVcom.htc.android.worldclock
p229
S'Tools'
p230
sVcom.lge.voicerecorder
p231
S'Unknown'
p232
sVcom.acer.android.acernidus
p233
S'Unknown'
p234
sVglobalcom.mobilenumberlocator
p235
S'Unknown'
p236
sVcom.latvisoft.jabraconnect
p237
S'Communication'
p238
sVcom.octopuscards.nfc_reader
p239
S'Tools'
p240
sVcom.wiser.home
p241
S'Personalization'
p242
sVcom.google.android.gms
p243
S'Tools'
p244
sVcom.sec.android.voltesettings
p245
S'Unknown'
p246
sVpl.solidexplorer
p247
S'Productivity'
p248
sVcom.fsecure.ms.fsecure_pc
p249
S'Unknown'
p250
sVcom.scavengerhunt.ui
p251
S'Travel &amp; Local'
p252
sVnl.fameit.rotate
p253
S'Tools'
p254
sVcom.flavionet.android.camera.pro
p255
S'Photography'
p256
sVcom.adsk.instructables
p257
S'Lifestyle'
p258
sVcom.galaxy.portugaltv
p259
S'Unknown'
p260
sVcom.plexapp.android
p261
S'Media &amp; Video'
p262
sVcom.sonyericsson.crashmonitor
p263
S'Unknown'
p264
sVcom.jmz.soft.twrpmanager
p265
S'Tools'
p266
sVcom.samsung.android.intelligenceservice
p267
S'Unknown'
p268
sVcom.sec.android.widgetapp.ap.yahoonews
p269
S'Unknown'
p270
sVcoolcherrytrees.games.reactor
p271
S'Family'
p272
sVcom.buak.Link2SD
p273
S'Tools'
p274
sVcom.mediatek.thermalmanager
p275
S'Unknown'
p276
sVcom.htc.Weather
p277
S'Weather'
p278
sVcom.sonelli.juicessh
p279
S'Communication'
p280
sVcom.fossor.wheellauncherfull
p281
S'Personalization'
p282
sVcom.motorola.android.provisioning
p283
S'Unknown'
p284
sVcom.birgitstock.hoppetee
p285
S'Arcade'
p286
sVcom.sec.android.app.safetyassurance
p287
S'Unknown'
p288
sVcom.tripit
p289
S'Travel &amp; Local'
p290
sVcom.google.android.calendar
p291
S'Productivity'
p292
sVcom.vzw.hss.widgets.infozone
p293
S'Tools'
p294
sVRemotePC.AndroidViewer.samsung
p295
S'Unknown'
p296
sVcom.google.android.ears
p297
S'Music &amp; Audio'
p298
sVcom.roysolberg.android.developertools
p299
S'Tools'
p300
sVcom.lander.hello
p301
S'Entertainment'
p302
sVcom.koushikdutta.backup
p303
S'Tools'
p304
sVcom.sec.game.sga
p305
S'Unknown'
p306
sVde.robv.android.xposed.installer
p307
S'Unknown'
p308
sVcom.teslacoilsw.launcher.prime
p309
S'Personalization'
p310
sVcom.motorola.aon
p311
S'Communication'
p312
sVorg.omnirom.omniswitch
p313
S'Unknown'
p314
sVcom.paninikeypad.sinhala
p315
S'Tools'
p316
sVcom.robotentertainment.heroacademy
p317
S'Arcade'
p318
sVcom.passwordbox.passwordbox
p319
S'Productivity'
p320
sVcom.ticketmaster.mobile.android.na
p321
S'Entertainment'
p322
sVcom.sec.knox.seandroid
p323
S'Unknown'
p324
sVcom.Elecont.WeatherClock
p325
S'Weather'
p326
sVcom.wsi.android.intellicast
p327
S'Weather'
p328
sVcom.clearchannel.iheartradio.controller
p329
S'Music &amp; Audio'
p330
sVcom.kaskus.android
p331
S'Social'
p332
sVcom.motorola.context.updater
p333
S'Unknown'
p334
sVcom.sec.spp.push
p335
S'Communication'
p336
sVcom.azarlive.android
p337
S'Communication'
p338
sVcom.sonymobile.androidapp.diagnostics
p339
S'Unknown'
p340
sVcom.privateinternetaccess.android
p341
S'Communication'
p342
sVcom.waterbear.taglog
p343
S'Productivity'
p344
sVcom.android.sharedstoragebackup
p345
S'Unknown'
p346
sVcom.urbandroid.lux
p347
S'Health &amp; Fitness'
p348
sVcom.mobisystems.editor.office_with_reg
p349
S'Business'
p350
sVcom.acj0.barcodeexpproa
p351
S'Productivity'
p352
sVcom.android.deskclock
p353
S'Unknown'
p354
sVcom.google.android.partnersetup
p355
S'Unknown'
p356
sVcom.lge.sizechangable.email
p357
S'Unknown'
p358
sVmy.handrite
p359
S'Productivity'
p360
sVcom.mediatek.videoplayer
p361
S'Unknown'
p362
sVcom.funandroidapps.wifipassword
p363
S'Unknown'
p364
sVcom.telkomsel.telkomselcm
p365
S'Tools'
p366
sVcom.google.android.onetimeinitializer
p367
S'Unknown'
p368
sVcom.android.magicsmoke
p369
S'Unknown'
p370
sVcom.sec.android.widgetapp.analogclocksimple
p371
S'Unknown'
p372
sVcom.gotv.crackle.handset
p373
S'Entertainment'
p374
sVcom.aware.plugin.openweather
p375
S'Unknown'
p376
sVcom.samsung.SMT.lang_en_us_l01
p377
S'Unknown'
p378
sVcom.nitrodesk.honey.nitroid
p379
S'Business'
p380
sVcom.lge.android.connectionmanager.widget
p381
S'Unknown'
p382
sVcom.sonymobile.cameraautoupload
p383
S'Unknown'
p384
sVcom.qualcomm.wiper
p385
S'Unknown'
p386
sVcom.turner.amateursurgeon3
p387
S'Simulation'
p388
sVcom.fsecure.freedome.vpn.security.privacy.android.fellows
p389
S'Unknown'
p390
sVde.j5k.gullinewsreader
p391
S'News &amp; Magazines'
p392
sVcom.mobialia.slot
p393
S'Racing'
p394
sVcom.ttxapps.drivesync
p395
S'Productivity'
p396
sVcom.mycelium.wallet
p397
S'Finance'
p398
sVcom.fsecure.freedome.vpn.security.privacy.android
p399
S'Tools'
p400
sVcom.example.TesteInternet
p401
S'Unknown'
p402
sVcom.lge.ia
p403
S'Unknown'
p404
sVcom.samsung.avrcp
p405
S'Unknown'
p406
sVcom.sec.android.app.calculator
p407
S'Unknown'
p408
sVcom.sec.android.app.sns3
p409
S'Unknown'
p410
sVcom.htc.launcher
p411
S'News &amp; Magazines'
p412
sVcom.example.darkactionbar
p413
S'Unknown'
p414
sVcom.mg.meteoearth
p415
S'Weather'
p416
sVcom.rechild.advancedtaskkiller
p417
S'Productivity'
p418
sVcom.riteshsahu.SMSBackupRestore
p419
S'Tools'
p420
sVcom.lidroid.fileexplorer
p421
S'Unknown'
p422
sVcom.KingCobraInc.twrpmanager
p423
S'Tools'
p424
sVcom.maildroid
p425
S'Communication'
p426
sVcom.paypal.android.p2pmobile
p427
S'Finance'
p428
sVorg.sbtools.gamehack
p429
S'Unknown'
p430
sVcom.mxtech.videoplayer.pro
p431
S'Media &amp; Video'
p432
sVcom.domobile.applock
p433
S'Tools'
p434
sVcom.android.exchange
p435
S'Unknown'
p436
sVcom.samsung.android.scloud.sync
p437
S'Unknown'
p438
sVcom.questvisual.wordlens.demo
p439
S'Travel &amp; Local'
p440
sVinputmethod.latin.perfectkeyboard
p441
S'Tools'
p442
sVcom.elvison.batterywidget
p443
S'Tools'
p444
sVde.dhl.paket
p445
S'Productivity'
p446
sVorg.yuttadhammo.BodhiTimer
p447
S'Lifestyle'
p448
sVcom.google.android.maps.mytracks
p449
S'Health &amp; Fitness'
p450
sVcom.htc.aurora
p451
S'Unknown'
p452
sVcom.geekyouup.android.widgets.battery
p453
S'Productivity'
p454
sVappsfuel.buongiorno.com
p455
S'Unknown'
p456
sVcom.sec.app.MIPErrorNotifier
p457
S'Unknown'
p458
sVcom.ksmobile.cb
p459
S'Communication'
p460
sVcom.devuni.flashlight
p461
S'Tools'
p462
sVcom.cah.VoiceNote
p463
S'Productivity'
p464
sVcom.imgur.mobile
p465
S'Entertainment'
p466
sVimoblife.toolbox.full.plugin.timer
p467
S'Tools'
p468
sVcom.adcb.bank
p469
S'Finance'
p470
sVcom.smule.magicpiano
p471
S'Music &amp; Audio'
p472
sVcom.moborobo.daemon
p473
S'Unknown'
p474
sVnl.sanomamedia.android.nu
p475
S'News &amp; Magazines'
p476
sVcom.mobisystems.editor.office_registered
p477
S'Business'
p478
sVcom.cleanmaster.security
p479
S'Tools'
p480
sVorg.labanux.bukuende
p481
S'Books &amp; Reference'
p482
sVcn.menue.barcodescanner
p483
S'Tools'
p484
sVde.softxperience.android.noteeverything
p485
S'Productivity'
p486
sVcom.isis.mclient.verizon.activity
p487
S'Finance'
p488
sVcom.example.getconversas
p489
S'Unknown'
p490
sVde.appengo.counter
p491
S'Tools'
p492
sVcom.android.dmlogging
p493
S'Unknown'
p494
sVcom.wwe.universe
p495
S'Entertainment'
p496
sVcom.mediatek.systemupdate
p497
S'Unknown'
p498
sVcom.pagesjaunes
p499
S'Travel &amp; Local'
p500
sVcom.syntellia.fleksy.kb
p501
S'Productivity'
p502
sVcom.voiceplusfree
p503
S'Communication'
p504
sVcom.expensemanager
p505
S'Finance'
p506
sVcom.mediatek.apst.target
p507
S'Unknown'
p508
sVcom.capigami.outofmilk
p509
S'Shopping'
p510
sVcom.motorola.sensorhub.msp430.updater
p511
S'Unknown'
p512
sVcom.foxit.mobile.pdf.lite
p513
S'Productivity'
p514
sVcom.nprpodcastplayer.app
p515
S'News &amp; Magazines'
p516
sVcom.facebook.katana
p517
S'Social'
p518
sVcom.samsung.indexservice
p519
S'Unknown'
p520
sVcom.motorola.dataswitch
p521
S'Unknown'
p522
sVcom.crazystudio.emoji.kitkat
p523
S'Tools'
p524
sVcom.htc.mms.backupagent
p525
S'Unknown'
p526
sVcom.rootuninstaller.rambooster
p527
S'Tools'
p528
sVcom.sonymobile.protectedmedia
p529
S'Unknown'
p530
sVcom.wagwan.datestatusbarlite
p531
S'Productivity'
p532
sVcom.sony.nfx.app.sfrc
p533
S'News &amp; Magazines'
p534
sVnl.ziggo.android.tv
p535
S'Entertainment'
p536
sVde.chip.ultimate
p537
S'News &amp; Magazines'
p538
sVcom.checkthis.frontback
p539
S'Social'
p540
sVorg.leo.android.dict
p541
S'Books &amp; Reference'
p542
sVtv.ustream.ustream
p543
S'Media &amp; Video'
p544
sVcom.buycott.android
p545
S'Shopping'
p546
sVcom.uc.browser.en
p547
S'Communication'
p548
sVds.cpuoverlay
p549
S'Tools'
p550
sVcom.tapblaze.monsterburger
p551
S'Family'
p552
sVcom.google.android.keep
p553
S'Productivity'
p554
sVcom.ratalaika.digger
p555
S'Arcade'
p556
sVcom.texty.sms
p557
S'Communication'
p558
sVcom.artificialsolutions.teneo.va.prod
p559
S'Productivity'
p560
sVcom.sprint.zone
p561
S'Unknown'
p562
sVcom.rsupport.rs.activity.rsupport.aas
p563
S'Tools'
p564
sVcom.fsecure.mobile.sync
p565
S'Unknown'
p566
sVcom.htc.csrecommend
p567
S'Unknown'
p568
sVcom.ooi.android.smb2
p569
S'Puzzle'
p570
sVcom.nova_theme.apexadwkitkat2
p571
S'Unknown'
p572
sVcom.smldm
p573
S'Unknown'
p574
sVcom.nianticproject.ingress
p575
S'Adventure'
p576
sVcom.lego.juniors.quest
p577
S'Adventure'
p578
sVcom.maxmpz.audioplayer
p579
S'Music &amp; Audio'
p580
sVcom.samsung.hidden.KT
p581
S'Unknown'
p582
sVcom.realdriftportnew.sipon
p583
S'Racing'
p584
sVcom.embeepay.mpm
p585
S'Communication'
p586
sVcom.wordwebsoftware.android.wordweb
p587
S'Books &amp; Reference'
p588
sVcom.thesoundagency.study
p589
S'Education'
p590
sVcc.madkite.freedom
p591
S'Unknown'
p592
sVyuku.alkitab
p593
S'Unknown'
p594
sVcom.sec.android.widgetapp.dualclock
p595
S'Unknown'
p596
sVcom.weather.Weather
p597
S'Weather'
p598
sVcom.lge.cloudhub
p599
S'Unknown'
p600
sVcom.duosecurity.duomobile
p601
S'Business'
p602
sVcom.sonyericsson.advancedwidget.onoff
p603
S'Unknown'
p604
sVcom.qublix.bubbleAge
p605
S'Arcade'
p606
sVcom.kiloo.subwaysurf
p607
S'Arcade'
p608
sVnu.tommie.inbrowser
p609
S'Communication'
p610
sVcom.icecoldapps.screenshotultimate
p611
S'Tools'
p612
sVcom.oanda.currencyconverter
p613
S'Travel &amp; Local'
p614
sVcom.sonyericsson.nfc
p615
S'Unknown'
p616
sVcom.huawei.inputmethod.hwpal
p617
S'Unknown'
p618
sVcom.rcreations.WebCamViewerPaid
p619
S'Productivity'
p620
sVcom.cyanogenmod.trebuchet
p621
S'Unknown'
p622
sVorg.plantnet
p623
S'Education'
p624
sVmatchart.android
p625
S'Lifestyle'
p626
sVcom.android.vending
p627
S'Unknown'
p628
sVcom.motorola.vvm
p629
S'Unknown'
p630
sVau.com.shiftyjelly.pocketcasts
p631
S'News &amp; Magazines'
p632
sVcom.noinnion.android.newsplus
p633
S'News &amp; Magazines'
p634
sVcom.diotek.mini_penmemo
p635
S'Unknown'
p636
sVcom.google.android.apps.adm
p637
S'Tools'
p638
sVcom.google.android.play.games
p639
S'Entertainment'
p640
sVcom.melodis.midomiMusicIdentifier.freemium
p641
S'Music &amp; Audio'
p642
sVcom.tbeasy.largelauncher
p643
S'Personalization'
p644
sVcom.htc.flexnet
p645
S'Unknown'
p646
sVcom.google.android.inputmethod.latin
p647
S'Tools'
p648
sVcom.jrdcom.file.operation
p649
S'Unknown'
p650
sVcom.samsung.android.app.gestureservice
p651
S'Unknown'
p652
sVcom.tvalabama.android.weather
p653
S'Weather'
p654
sVcom.cricket.video.score
p655
S'Unknown'
p656
sVcom.mxtech.videoplayer.ad
p657
S'Media &amp; Video'
p658
sVcom.lostnet.fw.pro
p659
S'Productivity'
p660
sVcom.coffeebeanventures.easyvoicerecorder
p661
S'Productivity'
p662
sVcom.gameloft.android.ANMP.GloftA8HM
p663
S'Racing'
p664
sVcom.apps.foundry.tempo
p665
S'News &amp; Magazines'
p666
sVcom.kakao.story
p667
S'Social'
p668
sVcom.handcent.nextsms
p669
S'Communication'
p670
sVcom.pantech.app.video
p671
S'Unknown'
p672
sVcom.cypressworks.changelogviewer
p673
S'Tools'
p674
sVcom.styleapps.billboardphoto.frames
p675
S'Photography'
p676
sVnet.slickdeals.android
p677
S'Shopping'
p678
sVcom.nxp.taginfolite
p679
S'Tools'
p680
sVcom.sec.android.app.factorykeystring
p681
S'Unknown'
p682
sVdk.cph.cphairport
p683
S'Travel &amp; Local'
p684
sVcom.kt.android.showtouch
p685
S'Unknown'
p686
sVfree.mp3.dlv6
p687
S'Unknown'
p688
sVorg.xzip.android.archiver
p689
S'Tools'
p690
sVcom.fatify.your.face
p691
S'Entertainment'
p692
sVcom.chillingo.catapultkingfree.android.aja
p693
S'Casual'
p694
sVcom.goldenfrog.vyprvpn.app
p695
S'Tools'
p696
sVcom.levelup.touiteur
p697
S'Social'
p698
sVatticlab.bodyscanner
p699
S'Entertainment'
p700
sVcom.sec.android.app.popupuireceiver
p701
S'Unknown'
p702
sVcom.endomondo.android
p703
S'Health &amp; Fitness'
p704
sVorg.kman.AquaMail
p705
S'Productivity'
p706
sVcom.gamevil.pocketgun
p707
S'Unknown'
p708
sVcom.pylba.news
p709
S'News &amp; Magazines'
p710
sVcom.sonyericsson.secureclockservice
p711
S'Unknown'
p712
sVcom.springwalk.mediaconverter
p713
S'Music &amp; Audio'
p714
sVcom.amazon.mShop.android
p715
S'Unknown'
p716
sVcom.callapp.contacts
p717
S'Communication'
p718
sVfi.itella.posti.android
p719
S'Productivity'
p720
sVcom.smartanuj.hideitpro
p721
S'Unknown'
p722
sVcom.goldenfrog.vyprvpn.beta
p723
S'Communication'
p724
sVcom.sec.android.widgetapp.memo
p725
S'Unknown'
p726
sVcom.distilledmedia.thejournal
p727
S'News &amp; Magazines'
p728
sVcom.pantech.app.wcw
p729
S'Unknown'
p730
sVcom.opengarden.firechat
p731
S'Social'
p732
sVmobi.mgeek.mypdf
p733
S'Communication'
p734
sVorg.openhab.habdroid
p735
S'Lifestyle'
p736
sVcom.froggyware.froggysnooze.lite
p737
S'Medical'
p738
sVcom.keramidas.TitaniumBackupPro
p739
S'Tools'
p740
sVcom.infraware.polarisoffice4
p741
S'Business'
p742
sVcom.motorola.nfcauthenticator
p743
S'Tools'
p744
sVcom.noinnion.android.greader.readerpro
p745
S'News &amp; Magazines'
p746
sVcom.sonymobile.extras.liveware.extension.smartkey
p747
S'Tools'
p748
sVcom.sec.android.app.bluetoothtest
p749
S'Unknown'
p750
sVcom.nero.android.htc.sync
p751
S'Unknown'
p752
sVcom.ogqcorp.bgh
p753
S'Personalization'
p754
sVcom.sec.android.provider.smemo
p755
S'Unknown'
p756
sVcom.skymotion.skymotion
p757
S'Weather'
p758
sVly.appt.oldify
p759
S'Entertainment'
p760
sVxcxin.fehd
p761
S'Tools'
p762
sVco.vine.android
p763
S'Social'
p764
sVcom.mg.android
p765
S'Weather'
p766
sVcom.romantymchyk.squawk
p767
S'Productivity'
p768
sVdk.minreklame.tilbudsavis
p769
S'Shopping'
p770
sVcom.ampparit.android
p771
S'News &amp; Magazines'
p772
sVorg.rojekti.clipper
p773
S'Productivity'
p774
sVenbd.mobilebanking
p775
S'Finance'
p776
sVcom.android.camera2
p777
S'Unknown'
p778
sVcom.csipsimple
p779
S'Communication'
p780
sVcom.svox.pico
p781
S'Unknown'
p782
sVorg.whispersystems.whisperpush
p783
S'Unknown'
p784
sVcom.ezjoynetwork.bubblekingdom
p785
S'Puzzle'
p786
sVcom.metago.astro
p787
S'Productivity'
p788
sVnl.tmg.upcoming
p789
S'News &amp; Magazines'
p790
sVcom.hklibrary
p791
S'Tools'
p792
sVcom.htc.contacts
p793
S'Unknown'
p794
sVcom.jwsoft.nfcactionlauncher
p795
S'Tools'
p796
sVcom.lenovo.powersaving
p797
S'Unknown'
p798
sVcom.mobeam.barcodeService
p799
S'Productivity'
p800
sVcom.sec.spen.flashannotatesvc
p801
S'Unknown'
p802
sVcom.lbe.security
p803
S'Tools'
p804
sVcom.linedev.android.hub
p805
S'Unknown'
p806
sVcom.samsung.sec.android.appwidget.programmonitorwidget
p807
S'Unknown'
p808
sVcom.koushikdutta.rommanager
p809
S'Tools'
p810
sVcom.netqin.mm
p811
S'Business'
p812
sVcom.mobisystems.msdict.embedded.wireless.oxford.coed
p813
S'Unknown'
p814
sVde.j4velin.vibrationNotifier
p815
S'Tools'
p816
sVch.gridvision.ppam.androidautomagic
p817
S'Tools'
p818
sVcom.pantech.weather
p819
S'Unknown'
p820
sVcom.rhmsoft.deviantart
p821
S'Unknown'
p822
sVcom.ea.tetrisfree_na
p823
S'Unknown'
p824
sVuk.co.nickfines.RealCalcPlus
p825
S'Productivity'
p826
sVcom.samsung.android.app.galaxyfinder
p827
S'Unknown'
p828
sVcom.samsung.sprint.smcc
p829
S'Unknown'
p830
sVcom.android.vpndialogs
p831
S'Unknown'
p832
sVcom.wavemarket.waplauncher
p833
S'Tools'
p834
sVcom.sec.jewishcalendar
p835
S'Unknown'
p836
sVma.wanam.torch
p837
S'Tools'
p838
sVcom.real.RealPlayer
p839
S'Media &amp; Video'
p840
sVpt.fjss.s2w
p841
S'Tools'
p842
sVcom.tinder
p843
S'Lifestyle'
p844
sVcom.mylocaltv.wbmawx
p845
S'Weather'
p846
sVcom.sec.android.daemonapp
p847
S'Unknown'
p848
sVcom.htc.dockmode
p849
S'Unknown'
p850
sVcom.sonymobile.experienceflow2
p851
S'Personalization'
p852
sVcom.ea.games.r3_row
p853
S'Racing'
p854
sVcom.sec.android.widgetapp.at.hero.accuweather
p855
S'Unknown'
p856
sVorg.cyanogenmod.voiceplus
p857
S'Unknown'
p858
sVcom.xs2theworld.twente
p859
S'Sports'
p860
sVcom.roidapp.photogrid
p861
S'Photography'
p862
sVcom.fmginc.hardlinemobile
p863
S'Social'
p864
sVuk.co.santander.santanderUK
p865
S'Finance'
p866
sVcom.sec.phone
p867
S'Unknown'
p868
sVcom.htc.sense.socialnetwork.googleplus
p869
S'Unknown'
p870
sVcom.okcupid.okcupid
p871
S'Social'
p872
sVcom.dropbox.android
p873
S'Productivity'
p874
sVcom.avg.wifiassist
p875
S'Tools'
p876
sVembware.phoneblocker
p877
S'Communication'
p878
sVcom.sonymobile.sonyselect
p879
S'Unknown'
p880
sVcom.skype.android.access
p881
S'Travel &amp; Local'
p882
sVcom.sec.android.app.sns
p883
S'Unknown'
p884
sVcom.bleacherreport.android.teamstream
p885
S'Sports'
p886
sVcom.sec.android.widgetapp.ap.yahoostock.stockclock
p887
S'Unknown'
p888
sVcom.noinnion.android.voicereading
p889
S'News &amp; Magazines'
p890
sVcom.sec.android.app.controlpanel
p891
S'Unknown'
p892
sVcom.sec.android.nearby.mediaserver
p893
S'Unknown'
p894
sVcom.afl.flirt.view
p895
S'Social'
p896
sVcom.martino2k6.clipboardcontents
p897
S'Productivity'
p898
sVcom.mapfactor.navigator
p899
S'Travel &amp; Local'
p900
sVcz.zalsky.android.watchremotecontrol
p901
S'Music &amp; Audio'
p902
sVcom.tecace.tetheringprovision
p903
S'Unknown'
p904
sVcom.acquasys.timebalance
p905
S'Productivity'
p906
sVcom.sonymobile.enterprise.service
p907
S'Unknown'
p908
sVcom.worldmate
p909
S'Travel &amp; Local'
p910
sVcom.google.android.dialer
p911
S'Unknown'
p912
sVcom.sec.android.widgetapp.activeapplicationwidget
p913
S'Unknown'
p914
sVcom.facebook.orca
p915
S'Communication'
p916
sVcom.sonyericsson.tetherentitlementcheck
p917
S'Unknown'
p918
sVcom.lovewuchin.xposed.xmultiwindow
p919
S'Unknown'
p920
sVit.miabit.android.dataonoff
p921
S'Tools'
p922
sVapp.xray
p923
S'Transportation'
p924
sVcom.coremobility.app.vnotes
p925
S'Unknown'
p926
sVnetgenius.bizcal
p927
S'Productivity'
p928
sVcom.sec.android.app.shealthlite
p929
S'Unknown'
p930
sVcom.tmobile.highlight
p931
S'News &amp; Magazines'
p932
sVcom.scannerradio_pro
p933
S'Entertainment'
p934
sVcom.gameloft.android.ANMP.GloftDMHM
p935
S'Casual'
p936
sVudk.android.reader
p937
S'Productivity'
p938
sVcom.voidvapps.intelli3g
p939
S'Tools'
p940
sVcom.devicescape.cspire.wifion
p941
S'Communication'
p942
sVit.evilsocket.dsploit.debug
p943
S'Unknown'
p944
sVcom.apalon.pimpyourscreen
p945
S'Personalization'
p946
sVcom.vzw.hss.myverizon
p947
S'Tools'
p948
sVcom.htc.musicenhancer
p949
S'Unknown'
p950
sVorg.mustard.android
p951
S'Social'
p952
sVcom.bellshare.beweather
p953
S'Weather'
p954
sVfm.last.android
p955
S'Music &amp; Audio'
p956
sVcom.sm.SlingGuide.Dish
p957
S'Entertainment'
p958
sVcom.avast.android.backup
p959
S'Tools'
p960
sVcom.octro.teenpatti
p961
S'Casino'
p962
sVcom.motorola.migrate
p963
S'Tools'
p964
sVcom.cogi.mobile
p965
S'Productivity'
p966
sVcom.bubblesoft.android.bubbleupnp
p967
S'Music &amp; Audio'
p968
sVcom.bbrother.voiceplus
p969
S'Communication'
p970
sVcom.jimrandomh.alarmroller
p971
S'Lifestyle'
p972
sVvivino.web.app
p973
S'Lifestyle'
p974
sVukzzang.android.gallerylocklite
p975
S'Tools'
p976
sVcom.sec.spen.flashannotate
p977
S'Unknown'
p978
sVcom.splunchy.android.alarmclock
p979
S'Tools'
p980
sVcom.android.syncml.service
p981
S'Unknown'
p982
sVcom.promethyl.batterychargingsourcecurrent
p983
S'Tools'
p984
sVcom.opera.browser.classic
p985
S'Communication'
p986
sVcom.samsung.android.service.travel
p987
S'Unknown'
p988
sVcom.trulia.android
p989
S'Lifestyle'
p990
sVcom.ubercab
p991
S'Transportation'
p992
sVcom.evernote.skitch
p993
S'Productivity'
p994
sVhk.idv.thomasluk.liturgypedia3
p995
S'Lifestyle'
p996
sVcom.example.android.navigationdrawerexample
p997
S'Unknown'
p998
sVcom.bsplayer.bspandroid.free
p999
S'Media &amp; Video'
p1000
sVnet.audiko2
p1001
S'Entertainment'
p1002
sVcom.teamviewer.quicksupport.addon.alcatela
p1003
S'Productivity'
p1004
sVcom.md.nasutils
p1005
S'Tools'
p1006
sVcom.sec.android.widgetapp.dualclockdigital
p1007
S'Unknown'
p1008
sVcom.wallpapers.backgroud.hd
p1009
S'Unknown'
p1010
sVcom.winkflash
p1011
S'Unknown'
p1012
sVcom.mail.mobile.android.mail
p1013
S'Communication'
p1014
sVcom.sand.airdroid
p1015
S'Tools'
p1016
sVcom.motorola.service.vzw.entitlement
p1017
S'Unknown'
p1018
sVcom.samsung.emergencyreporthelper
p1019
S'Unknown'
p1020
sVnet.cachapa.libra
p1021
S'Health &amp; Fitness'
p1022
sVcom.htc.syncml.service
p1023
S'Unknown'
p1024
sVcom.adaderana.tv.phone
p1025
S'Entertainment'
p1026
sVmobi.infolife.uninstallerpro
p1027
S'Productivity'
p1028
sVcom.floatingfilemanager
p1029
S'Unknown'
p1030
sVcom.blurb.checkout
p1031
S'Photography'
p1032
sVcom.lge.sizechangable.favoritecontacts
p1033
S'Unknown'
p1034
sVcom.skp.tcloud.agent
p1035
S'Unknown'
p1036
sVcom.tss21.translator.l10.main
p1037
S'Travel &amp; Local'
p1038
sVcom.advancedprocessmanager
p1039
S'Productivity'
p1040
sVcom.pikpok.rua2
p1041
S'Arcade'
p1042
sVcom.crowbar.beaverlite
p1043
S'Communication'
p1044
sVnet.indieroms.OmegaFiles
p1045
S'Tools'
p1046
sVpl.solidexplorer.unlocker
p1047
S'Productivity'
p1048
sVde.lufthansa.ife.va
p1049
S'Entertainment'
p1050
sVcom.google.android.apps.books
p1051
S'Books &amp; Reference'
p1052
sVcom.idmobile.flashlight
p1053
S'Tools'
p1054
sVcom.lge.slideaside
p1055
S'Unknown'
p1056
sVde.androidpit.app
p1057
S'News &amp; Magazines'
p1058
sVcom.qualcomm.timeservice
p1059
S'Unknown'
p1060
sVcom.scottmain.android.searchlight
p1061
S'Tools'
p1062
sVcom.keyloftllc.imadeface
p1063
S'Entertainment'
p1064
sVcom.sec.android.app.wallpaperchooser
p1065
S'Unknown'
p1066
sVcom.ivuu
p1067
S'Media &amp; Video'
p1068
sVcom.motorola.moodle
p1069
S'Unknown'
p1070
sVcom.anddoes.notifier
p1071
S'Personalization'
p1072
sVcom.trustgo.mobile.security
p1073
S'Tools'
p1074
sVair.com.nwg.deutscheWitze
p1075
S'Entertainment'
p1076
sVcom.namcowireless.flightcontrol
p1077
S'Casual'
p1078
sVcom.lge.osp
p1079
S'Unknown'
p1080
sVcom.innologica.inoreader
p1081
S'News &amp; Magazines'
p1082
sVcom.zealousOne.changemydns
p1083
S'Tools'
p1084
sVcom.android.email
p1085
S'Unknown'
p1086
sVcom.sec.msc.learninghub
p1087
S'Unknown'
p1088
sVcom.lge.smarttext
p1089
S'Unknown'
p1090
sVsk.mildev84.agendareminder
p1091
S'Productivity'
p1092
sVcom.htc.htcmailwidgets
p1093
S'Unknown'
p1094
sVcom.toggl.timer
p1095
S'Productivity'
p1096
sVru.viatun.android4
p1097
S'Tools'
p1098
sVcom.wSinglesXDating
p1099
S'Unknown'
p1100
sVcom.glu.deerhunt2
p1101
S'Action'
p1102
sVde.stohelit.folderplayer
p1103
S'Music &amp; Audio'
p1104
sVcom.lge.streamingplayer
p1105
S'Unknown'
p1106
sVcom.htc.accessory
p1107
S'Unknown'
p1108
sVcom.nuance.swype.input
p1109
S'Unknown'
p1110
sVcom.mobint.hololauncher.hd
p1111
S'Personalization'
p1112
sVcom.sony.nfx.service.WirelessControllerManagerService
p1113
S'Unknown'
p1114
sVcom.sec.yosemite.phone
p1115
S'Entertainment'
p1116
sVfr.epicdream.beamy
p1117
S'Shopping'
p1118
sVjp.ddo.pigsty.HabitBrowser
p1119
S'Communication'
p1120
sVcom.facebook.pages.app
p1121
S'Business'
p1122
sVcom.lenovo.smart
p1123
S'Unknown'
p1124
sVlrstudios.games.gnugo
p1125
S'Puzzle'
p1126
sVkeepass2android.keepass2android
p1127
S'Tools'
p1128
sVcom.appgenix.biztasks
p1129
S'Productivity'
p1130
sVcm.aptoide.pt
p1131
S'Unknown'
p1132
sVcom.sonyericsson.dlnahandover
p1133
S'Unknown'
p1134
sVcom.farproc.wifi.analyzer
p1135
S'Tools'
p1136
sVcom.lge.lgdmsgcm
p1137
S'Unknown'
p1138
sVcom.gsamlabs.bbm.pro
p1139
S'Tools'
p1140
sVcom.QrBarcodeScanner
p1141
S'Unknown'
p1142
sVcom.espn.score_center
p1143
S'Sports'
p1144
sVcom.ncavesoft.drivingmessagereader
p1145
S'Transportation'
p1146
sVcom.halfbrick.jetpackjoyride
p1147
S'Arcade'
p1148
sVcom.duolingo
p1149
S'Education'
p1150
sVcom.king.farmheroessaga
p1151
S'Casual'
p1152
sVcom.jiubang.go.backup.ex
p1153
S'Tools'
p1154
sVcom.mediatek.mobilelog
p1155
S'Unknown'
p1156
sVcom.glu.robocop
p1157
S'Action'
p1158
sVcom.htc.FMRadioWidget
p1159
S'Unknown'
p1160
sVjp.co.johospace.jorte
p1161
S'Productivity'
p1162
sVorg.hlousek.droid.twapro
p1163
S'Tools'
p1164
sVbiz.bokhorst.xprivacy
p1165
S'Unknown'
p1166
sVcom.google.android.diskusage
p1167
S'Tools'
p1168
sVcom.htc.sense.socialnetwork.instagram
p1169
S'Unknown'
p1170
sVcom.example.testapp
p1171
S'Unknown'
p1172
sVcom.logikstate.sandslides
p1173
S'Puzzle'
p1174
sVorg.adwfreak.launcher
p1175
S'Personalization'
p1176
sVpt.bbarao.nightmode
p1177
S'Tools'
p1178
sVcom.amazon.fv
p1179
S'Unknown'
p1180
sVreddit.news
p1181
S'News &amp; Magazines'
p1182
sVcom.samsung.map
p1183
S'Unknown'
p1184
sVcom.samsung.InputEventApp
p1185
S'Unknown'
p1186
sVcom.Tech7.iPhone5sIOSLockScreen
p1187
S'Unknown'
p1188
sVcom.gmd.hidesoftkeys
p1189
S'Productivity'
p1190
sVcom.lge.carhome
p1191
S'Unknown'
p1192
sVcom.pikpok.mamc
p1193
S'Puzzle'
p1194
sVcom.marginz.snap
p1195
S'Photography'
p1196
sVcom.pccw.pccwHotspotFinder_Tourist
p1197
S'Tools'
p1198
sVcom.shazam.android
p1199
S'Music &amp; Audio'
p1200
sVcom.htc.lockscreen
p1201
S'Tools'
p1202
sVcom.vlingo.midas
p1203
S'Unknown'
p1204
sVcom.pallosalama.callerinfo.application
p1205
S'Communication'
p1206
sVcom.dexterltd.wifiscanner_lite
p1207
S'Unknown'
p1208
sVcom.mediatek.filemanager
p1209
S'Unknown'
p1210
sVcom.android.launcher3
p1211
S'Unknown'
p1212
sVcom.cloudmagic.mail
p1213
S'Communication'
p1214
sVmobi.infolife.cache
p1215
S'Tools'
p1216
sVcom.motorola.wirelessdisplay.service
p1217
S'Unknown'
p1218
sVcom.tapblaze.mypizzashop
p1219
S'Family'
p1220
sVcom.oasisfeng.greenify
p1221
S'Tools'
p1222
sVcom.ilegendsoft.mercury
p1223
S'Productivity'
p1224
sVcom.nimbuzz
p1225
S'Social'
p1226
sVcom.ijinshan.kbatterydoctor_en
p1227
S'Tools'
p1228
sVfi.mikrotie.treemaker
p1229
S'Arcade'
p1230
sVcom.htc.android.htcime
p1231
S'Unknown'
p1232
sVcom.chrome.beta
p1233
S'Productivity'
p1234
sVcom.sec.android.app.videoplayer
p1235
S'Unknown'
p1236
sVcom.lge.chargingwallpaper.gentlybubblingwatercw
p1237
S'Unknown'
p1238
sVcom.sec.android.app.voicenote
p1239
S'Unknown'
p1240
sVak.alizandro.smartaudiobookplayer
p1241
S'Books &amp; Reference'
p1242
sVpl.webnet.android.dateintray.pro
p1243
S'Productivity'
p1244
sVcom.ideas.for.life
p1245
S'Unknown'
p1246
sVcom.android.htmlviewer
p1247
S'Unknown'
p1248
sVcom.fsecure.mobile.castintegrationtest
p1249
S'Unknown'
p1250
sVcom.binarytoys.speedometer
p1251
S'Transportation'
p1252
sVcom.gmail.developer.runks.enji
p1253
S'Tools'
p1254
sVcom.andy.sensor
p1255
S'Unknown'
p1256
sVcom.sonymobile.storagechecker
p1257
S'Unknown'
p1258
sVcom.example.testemorada
p1259
S'Unknown'
p1260
sVcom.ravenx.amsterdammetro
p1261
S'Unknown'
p1262
sVcom.nbadigital.gametimebig
p1263
S'Sports'
p1264
sVdk.danskebank.mobilepay
p1265
S'Finance'
p1266
sVcom.aufeminin.marmiton.activities
p1267
S'Lifestyle'
p1268
sVcom.qualcomm.atfwd
p1269
S'Unknown'
p1270
sVcom.diotek.diodict3.service
p1271
S'Unknown'
p1272
sVcom.icloudzone.DeathMoto
p1273
S'Arcade'
p1274
sVcom.sec.modem.settings
p1275
S'Unknown'
p1276
sVstericson.busybox.donate
p1277
S'Tools'
p1278
sVcom.lachainemeteo.androidapp
p1279
S'Weather'
p1280
sVse.badaccess.locale.nfc
p1281
S'Productivity'
p1282
sVde.idcardscanner
p1283
S'Tools'
p1284
sVcom.hantor.CozyMagPlus
p1285
S'Lifestyle'
p1286
sVcom.htc.updater
p1287
S'Unknown'
p1288
sVosga.utility.passoarezar
p1289
S'Lifestyle'
p1290
sVcom.cisi.activities
p1291
S'Entertainment'
p1292
sVcom.apalon.myclockfree
p1293
S'Tools'
p1294
sVcom.mufumbo.android.recipe.search
p1295
S'Health &amp; Fitness'
p1296
sVlk.bhasha.mobitv
p1297
S'Entertainment'
p1298
sVcom.sec.factory
p1299
S'Unknown'
p1300
sVcom.teslacoilsw.launcher
p1301
S'Personalization'
p1302
sVcom.mandicmagic.android
p1303
S'Social'
p1304
sVcom.orangelabs.rcs
p1305
S'Unknown'
p1306
sVcom.kaja.instantwatcher
p1307
S'Media &amp; Video'
p1308
sVmikrosmile.ic.market
p1309
S'Unknown'
p1310
sVcom.gerbugy.habit
p1311
S'Unknown'
p1312
sVdk.egovplus.case3.mols.android
p1313
S'Travel &amp; Local'
p1314
sVcom.sonyericsson.advancedwidget.weather
p1315
S'Unknown'
p1316
sVcom.tencent.mm
p1317
S'Communication'
p1318
sVcom.twentyfivesquares.press
p1319
S'News &amp; Magazines'
p1320
sVcom.supercell.clashofclans
p1321
S'Strategy'
p1322
sVcom.sec.android.fwupgrade
p1323
S'Unknown'
p1324
sVair.gov.census.phone.dwellr
p1325
S'Lifestyle'
p1326
sVcom.google.android.apps.docs.editors.sheets
p1327
S'Productivity'
p1328
sVcom.vladlee.callconfirm.pro
p1329
S'Communication'
p1330
sVme.everything.launcher
p1331
S'Personalization'
p1332
sVcom.android.jrdfota
p1333
S'Unknown'
p1334
sVnet.nakvic.dromoris
p1335
S'Lifestyle'
p1336
sVcom.android.camera
p1337
S'Unknown'
p1338
sVcom.mingpao.mpnewsandroid
p1339
S'News &amp; Magazines'
p1340
sVorg.openintents.filemanager
p1341
S'Productivity'
p1342
sVcom.samsung.android.app.assistantmenu
p1343
S'Unknown'
p1344
sVcom.tolan.braintestcolor
p1345
S'Puzzle'
p1346
sVcom.google.android.setupwizard
p1347
S'Unknown'
p1348
sVcom.adamhogan.android.chemtutor
p1349
S'Education'
p1350
sVnet.hubalek.android.apps.reborn.pro
p1351
S'Tools'
p1352
sVname.boyle.chris.sgtpuzzles
p1353
S'Puzzle'
p1354
sVcom.motorola.devicemanagement
p1355
S'Unknown'
p1356
sVcom.android.quicksearchbox
p1357
S'Unknown'
p1358
sVcom.sharpcast.sugarsync
p1359
S'Productivity'
p1360
sVcom.lego.bricksmore
p1361
S'Educational'
p1362
sVccc71.at
p1363
S'Tools'
p1364
sVch.iAgentur.i20Min
p1365
S'News &amp; Magazines'
p1366
sVcom.mindmeapp.alarmpad
p1367
S'Lifestyle'
p1368
sVcom.Hypnosis
p1369
S'Medical'
p1370
sVcom.tawkon
p1371
S'Health &amp; Fitness'
p1372
sVopen.menthal
p1373
S'Productivity'
p1374
sVcom.bfrontier.smartwatchmodechanger
p1375
S'Tools'
p1376
sVorg.npr.android.news
p1377
S'News &amp; Magazines'
p1378
sVcom.bamnetworks.mobile.android.gameday.atbat
p1379
S'Sports'
p1380
sVcom.sec.android.gallery3d
p1381
S'Unknown'
p1382
sVcom.cleanmaster.mguard
p1383
S'Tools'
p1384
sVcom.linkbubble.license.playstore
p1385
S'Personalization'
p1386
sVcom.armorforandroid.security
p1387
S'Tools'
p1388
sVcom.mediatek.todos
p1389
S'Unknown'
p1390
sVpl.krzysiek.afc.iqt
p1391
S'Puzzle'
p1392
sVcom.sonymobile.sketch
p1393
S'Entertainment'
p1394
sVdirectenergy.mobileoam
p1395
S'Business'
p1396
sVcom.sec.android.widgetapp.digitalclock
p1397
S'Unknown'
p1398
sVcom.QuiteHypnotic.SilentTime
p1399
S'Tools'
p1400
sVcom.planetdiscover.granite.phone.wbng
p1401
S'News &amp; Magazines'
p1402
sVcom.roymam.android.notificationswidget
p1403
S'Personalization'
p1404
sVcom.citrixonline.android.gotomeeting
p1405
S'Business'
p1406
sVcom.fltech.ceyloncalendar
p1407
S'Lifestyle'
p1408
sVcom.app.downloadmanager
p1409
S'Tools'
p1410
sVcom.dreambit.wazeup
p1411
S'Unknown'
p1412
sVcom.rdio.android.ui
p1413
S'Music &amp; Audio'
p1414
sVcom.sec.everglades.update
p1415
S'Unknown'
p1416
sVcom.htc.htcdialer
p1417
S'Unknown'
p1418
sVcom.spiderfly.iserm.popupnotifications
p1419
S'Productivity'
p1420
sVcom.sicksky
p1421
S'Personalization'
p1422
sVcom.sonyericsson.android.locationbasedwifi
p1423
S'Unknown'
p1424
sVcom.sec.android.scloud.quota
p1425
S'Unknown'
p1426
sVch.bitspin.timely
p1427
S'Lifestyle'
p1428
sVcom.motorola.avatar
p1429
S'Entertainment'
p1430
sVcom.moxier.eas
p1431
S'Unknown'
p1432
sVorg.adaway
p1433
S'Unknown'
p1434
sVcom.samsung.android.widgetapp.briefing4x2
p1435
S'Unknown'
p1436
sVcom.qualcomm.qualcommsettings
p1437
S'Unknown'
p1438
sVru.empireappsandgames.simulatorlaser
p1439
S'Simulation'
p1440
sVcom.runar.issdetector
p1441
S'Education'
p1442
sVcom.xnview.XnResizeLite
p1443
S'Photography'
p1444
sVcom.urbandroid.inline
p1445
S'Tools'
p1446
sVcom.sonyericsson.simdetection
p1447
S'Unknown'
p1448
sVcom.klye.ime.latin
p1449
S'Tools'
p1450
sVcom.github.mobile
p1451
S'Productivity'
p1452
sVcom.eclipsim.gpsstatus2
p1453
S'Travel &amp; Local'
p1454
sVcom.dcentral1.android
p1455
S'Tools'
p1456
sVvcam.dk.DanskeNyheder
p1457
S'News &amp; Magazines'
p1458
sVcom.matthew.rice.volume.master
p1459
S'Unknown'
p1460
sVcom.july.cricinfo
p1461
S'Sports'
p1462
sVcom.mikesandroidworkshop.android.taskmanager
p1463
S'Productivity'
p1464
sVcom.htc.fm
p1465
S'Unknown'
p1466
sVcom.pantech.app.test_menu
p1467
S'Unknown'
p1468
sVcom.android.dialer
p1469
S'Unknown'
p1470
sVcom.sadetta.javelin
p1471
S'Sports'
p1472
sVcom.jaumo
p1473
S'Social'
p1474
sVcom.houzz.app
p1475
S'Lifestyle'
p1476
sVcom.taobao.taobao
p1477
S'Shopping'
p1478
sVcom.bca
p1479
S'Finance'
p1480
sVcom.dummyburst.android.application.unlimitedburstshot
p1481
S'Unknown'
p1482
sVcom.android.phone
p1483
S'Unknown'
p1484
sVcom.google.android.videos
p1485
S'Media &amp; Video'
p1486
sVcom.lge.camera
p1487
S'Unknown'
p1488
sVcom.android.calculator2
p1489
S'Unknown'
p1490
sVfi.op.android.lompsa
p1491
S'Finance'
p1492
sVdev.ukanth.ufirewall
p1493
S'Tools'
p1494
sVcom.bandwidth.rw
p1495
S'Communication'
p1496
sVcom.buzzpia.aqua.appwidget.clock
p1497
S'Personalization'
p1498
sVcom.eoffice.android
p1499
S'News &amp; Magazines'
p1500
sVfi.fmi.mobileweather
p1501
S'Weather'
p1502
sVcom.fitbit.FitbitMobile
p1503
S'Health &amp; Fitness'
p1504
sVcom.myskyspark.music
p1505
S'Music &amp; Audio'
p1506
sVcom.infraware.polarisviewer5
p1507
S'Unknown'
p1508
sVpt.portoeditora.android.dicionario.lingua_portuguesa
p1509
S'Books &amp; Reference'
p1510
sVcom.sec.android.app.FileShareServer
p1511
S'Unknown'
p1512
sVcom.kakao.talk
p1513
S'Communication'
p1514
sVde.langerhans.wallet
p1515
S'Finance'
p1516
sVcom.tendaysoneapp.flib.converter
p1517
S'Tools'
p1518
sVnet.dinglisch.android.taskerm
p1519
S'Tools'
p1520
sVcom.teslacoilsw.widgetlocker
p1521
S'Personalization'
p1522
sVcom.jrtstudio.AnotherMusicPlayer
p1523
S'Music &amp; Audio'
p1524
sVcom.wyse.pocketcloudfree
p1525
S'Business'
p1526
sVcom.joelapenna.foursquared
p1527
S'Travel &amp; Local'
p1528
sVcom.glu.flc2
p1529
S'Action'
p1530
sVcom.threeamteam.brownrecluse
p1531
S'Entertainment'
p1532
sVde.android.telnet2
p1533
S'Tools'
p1534
sVcom.ridescoutapp.android.ridescout
p1535
S'Transportation'
p1536
sVcom.sonyericsson.unplugchargerreminder
p1537
S'Unknown'
p1538
sVcom.movial.ipprovider
p1539
S'Unknown'
p1540
sVcom.lotus.sync.traveler
p1541
S'Business'
p1542
sVcom.sec.android.widgetapp.ap.yonhapnews
p1543
S'Unknown'
p1544
sVcom.google.android.apps.walletnfcrel
p1545
S'Finance'
p1546
sVcom.iconology.comics
p1547
S'Comics'
p1548
sVcom.sonyericsson.album
p1549
S'Unknown'
p1550
sVme.disconnect.search
p1551
S'Tools'
p1552
sVde.gavitec.semc
p1553
S'Unknown'
p1554
sVcom.andromo.dev5592.app130677
p1555
S'Music &amp; Audio'
p1556
sVcom.google.android.email
p1557
S'Productivity'
p1558
sVcom.google.android.apps.genie.geniewidget
p1559
S'News &amp; Magazines'
p1560
sVcom.mizustudios.supermetroidlwp
p1561
S'Unknown'
p1562
sVcom.sonyericsson.extras.liveware
p1563
S'Tools'
p1564
sVcom.mdv.SWCompanion
p1565
S'Transportation'
p1566
sVcom.sec.knox.eventsmanager
p1567
S'Unknown'
p1568
sVcom.google.earth
p1569
S'Travel &amp; Local'
p1570
sVcom.xin.android.notepad
p1571
S'Unknown'
p1572
sVcom.motorola.moodles
p1573
S'Unknown'
p1574
sVcom.andronicus.ledclock
p1575
S'Lifestyle'
p1576
sVflipboard.app
p1577
S'News &amp; Magazines'
p1578
sVcom.aware.plugin.google.activity_recognition
p1579
S'Unknown'
p1580
sVcom.android.remotecontrolservice
p1581
S'Unknown'
p1582
sVhk.rthk.fwRTHK01
p1583
S'News &amp; Magazines'
p1584
sVcom.cellit.cellitnews.kabb
p1585
S'News &amp; Magazines'
p1586
sVcom.srb.app.wfd
p1587
S'Lifestyle'
p1588
sVcom.vistechprojects.maptrack
p1589
S'Productivity'
p1590
sVcom.sonyericsson.xhs
p1591
S'Entertainment'
p1592
sVcom.htc.cs.pushclient
p1593
S'Unknown'
p1594
sVcom.itchmedia.riddlemethat
p1595
S'Unknown'
p1596
sVnet.rgruet.android.g3watchdog
p1597
S'Tools'
p1598
sVcom.sec.android.googlesearchwidget
p1599
S'Unknown'
p1600
sVcom.digital_and_dreams.android.swiss_army_knife
p1601
S'Tools'
p1602
sVcom.android.ahnmobilesecurity
p1603
S'Unknown'
p1604
sVcom.lge.mlt
p1605
S'Unknown'
p1606
sVcom.samsung.videohub
p1607
S'Entertainment'
p1608
sVcom.estoty.game2048
p1609
S'Puzzle'
p1610
sVcom.htc.backupreset
p1611
S'Unknown'
p1612
sVcom.iteris.sandag
p1613
S'Travel &amp; Local'
p1614
sVcom.gpstrackerapp
p1615
S'Unknown'
p1616
sVcom.ne.facebookphoto
p1617
S'Unknown'
p1618
sVcom.pantech.app.simplehomeinfoclock
p1619
S'Unknown'
p1620
sVcom.sec.android.widgetapp.dualclockanalog
p1621
S'Unknown'
p1622
sVcom.stoik.mdscan
p1623
S'Business'
p1624
sVcom.sec.android.app.mediasync
p1625
S'Music &amp; Audio'
p1626
sVcom.lge.sizechangable.musicwidget.widget
p1627
S'Unknown'
p1628
sVcom.jv.falcon.pro
p1629
S'Unknown'
p1630
sVcom.justpictures
p1631
S'Tools'
p1632
sVmohammad.adib.switchr
p1633
S'Tools'
p1634
sVcom.powerapps.camera
p1635
S'Photography'
p1636
sVcom.nema.batterycalibration
p1637
S'Tools'
p1638
sVcom.samsung.android.app.episodes
p1639
S'Unknown'
p1640
sVcom.policydm
p1641
S'Productivity'
p1642
sVcom.mgs.mundodapicaria
p1643
S'News &amp; Magazines'
p1644
sVnexbit.icons.moonshine
p1645
S'Personalization'
p1646
sVcom.sonyericsson.music
p1647
S'Unknown'
p1648
sVair.com.lego.city.rapidrescue
p1649
S'Unknown'
p1650
sVcom.drippler.android.updates
p1651
S'News &amp; Magazines'
p1652
sVcom.kreammedie.hugoretromania.android.all
p1653
S'Arcade'
p1654
sVcom.locationlabs.finder.sprint
p1655
S'Lifestyle'
p1656
sVcom.happyexabytes.ambio
p1657
S'Health &amp; Fitness'
p1658
sVuk.co.exelentia.wikipedia
p1659
S'Unknown'
p1660
sVnet.metageek
p1661
S'Unknown'
p1662
sVcom.mantano.reader.android
p1663
S'Productivity'
p1664
sVcom.tul.aviate
p1665
S'Personalization'
p1666
sVcom.mediatek.bluetooth
p1667
S'Unknown'
p1668
sVcom.google.android.voicesearch
p1669
S'Tools'
p1670
sVcom.ktshow.cs
p1671
S'Lifestyle'
p1672
sVcom.mycolorscreen.themer
p1673
S'Personalization'
p1674
sVcom.carbon.delta
p1675
S'Unknown'
p1676
sVcom.sony.snei.np.android.account
p1677
S'Tools'
p1678
sVcom.fusionone.android.sync.service
p1679
S'Unknown'
p1680
sVcom.motorola.dlight
p1681
S'Tools'
p1682
sVuk.co.nationalrail.google
p1683
S'Transportation'
p1684
sVnet.daum.android.solcalendar
p1685
S'Productivity'
p1686
sVorg.wahtod.wififixer
p1687
S'Tools'
p1688
sVcom.motorola.motocit
p1689
S'Unknown'
p1690
sVit.junglestudios.cookieclickers
p1691
S'Casual'
p1692
sVcom.snapchat.android
p1693
S'Social'
p1694
sVimoblife.startupmanager.full
p1695
S'Unknown'
p1696
sVmobi.mgeek.TunnyBrowser
p1697
S'Communication'
p1698
sVcom.lge.email
p1699
S'Unknown'
p1700
sVcom.denzilferreira.apps.callername
p1701
S'Tools'
p1702
sVcom.hatsproductions.OrganTrail.humble
p1703
S'Unknown'
p1704
sVcom.sec.android.mmapp
p1705
S'Unknown'
p1706
sVcom.videon.android.mediaplayer_i18n
p1707
S'Unknown'
p1708
sVcom.kms.free
p1709
S'Tools'
p1710
sVcom.htc.demoflopackageinstaller
p1711
S'Unknown'
p1712
sVcom.locomain.nexplay
p1713
S'Music &amp; Audio'
p1714
sVcom.quizbattle.client.android
p1715
S'Unknown'
p1716
sVcom.wssyncmldm
p1717
S'Unknown'
p1718
sVcom.android.packageinstaller
p1719
S'Unknown'
p1720
sVcom.sonyericsson.idd.agent
p1721
S'Unknown'
p1722
sVcom.nuance.swype.dtc
p1723
S'Productivity'
p1724
sVcom.htc.bluetooth.le.profiles
p1725
S'Unknown'
p1726
sVcom.mobisystems.office
p1727
S'Business'
p1728
sVmobi.conduction.swipepad.android
p1729
S'Productivity'
p1730
sVnet.daum.android.air
p1731
S'Communication'
p1732
sVcom.lge.ia.task.textlink
p1733
S'Unknown'
p1734
sVcom.freevideo.entertainment.youtube
p1735
S'Unknown'
p1736
sVcom.billguard.android
p1737
S'Finance'
p1738
sVdk.tacit.android.foldersync.full
p1739
S'Communication'
p1740
sVcom.northpark.drinkwater
p1741
S'Health &amp; Fitness'
p1742
sVcom.rerware.android.MyBackupPro
p1743
S'Tools'
p1744
sVcom.guidedways.android2do
p1745
S'Productivity'
p1746
sVcom.google.android.apps.iosched
p1747
S'Unknown'
p1748
sVcom.biggu.shopsavvy
p1749
S'Shopping'
p1750
sVcom.melodis.midomiMusicIdentifier
p1751
S'Music &amp; Audio'
p1752
sVcom.bloomberg.android
p1753
S'Finance'
p1754
sVcom.dailysciencerss.zantesoft
p1755
S'News &amp; Magazines'
p1756
sVcom.snappea
p1757
S'Tools'
p1758
sVcom.tryagent
p1759
S'Tools'
p1760
sVorg.dayup.gtask
p1761
S'Productivity'
p1762
sVcom.sonymobile.androidapp.functiontester
p1763
S'Tools'
p1764
sVcom.htc.home.personalize
p1765
S'Unknown'
p1766
sVcom.tmobile.pr.mytmobile
p1767
S'Tools'
p1768
sVgiannisgx89.yoma.icons
p1769
S'Personalization'
p1770
sVde.radio.android
p1771
S'Music &amp; Audio'
p1772
sVorg.antivirus
p1773
S'Communication'
p1774
sVcom.donutgames.catphysics
p1775
S'Family'
p1776
sVcom.sorrosoft.datalock
p1777
S'Tools'
p1778
sVcom.uei.lg.quicksetsdk.maxq616
p1779
S'Unknown'
p1780
sVname.pilgr.appdialer.pro
p1781
S'Productivity'
p1782
sVcom.stealthstudios.vanned
p1783
S'Unknown'
p1784
sVcom.sonyericsson.organizer
p1785
S'Unknown'
p1786
sVcom.vito.lux
p1787
S'Tools'
p1788
sVcom.sec.android.fotaprovider
p1789
S'Unknown'
p1790
sVcom.google.android.nfcprovision
p1791
S'Unknown'
p1792
sVcom.google.android.apps.uploader
p1793
S'Unknown'
p1794
sVcom.zoner.android.antivirus
p1795
S'Tools'
p1796
sVcom.birdstep.android.cm
p1797
S'Unknown'
p1798
sVcom.sonyericsson.trackid
p1799
S'Music &amp; Audio'
p1800
sVcom.wizi.facesin
p1801
S'Social'
p1802
sVcom.hb.settings
p1803
S'Productivity'
p1804
sVcom.utorrent.client
p1805
S'Media &amp; Video'
p1806
sVcom.Magickey.MagicContact
p1807
S'Communication'
p1808
sVcom.samsung.android.provider.filterprovider
p1809
S'Unknown'
p1810
sVcom.sonyericsson.dlna
p1811
S'Unknown'
p1812
sVcom.alarmclock.xtreme.free
p1813
S'Tools'
p1814
sVcom.sec.factory.camera
p1815
S'Unknown'
p1816
sVcom.android.gallery3d
p1817
S'Unknown'
p1818
sVcom.stitcher.app
p1819
S'Music &amp; Audio'
p1820
sVcom.klinker.android.twitter
p1821
S'Unknown'
p1822
sVuk.co.mytechie.setDNSPro
p1823
S'Tools'
p1824
sVfahrbot.apps.rootcallblocker.pro
p1825
S'Communication'
p1826
sVcom.slice
p1827
S'Shopping'
p1828
sVcom.android.systemui
p1829
S'Unknown'
p1830
sVplayboard.android
p1831
S'Entertainment'
p1832
sVcom.felixheller.sharedprefseditor
p1833
S'Tools'
p1834
sVcom.rumr
p1835
S'Communication'
p1836
sVcom.cataclysmicdev.mindresolve
p1837
S'Puzzle'
p1838
sVnet.mobilecraft.mushboom
p1839
S'Adventure'
p1840
sVcom.android.facelock
p1841
S'Unknown'
p1842
sVde.j4velin.delayedlock2.trial
p1843
S'Tools'
p1844
sVcom.sonyericsson.android.wakeup
p1845
S'Unknown'
p1846
sVdeezer.android.app
p1847
S'Music &amp; Audio'
p1848
sVcom.sonyericsson.usbux
p1849
S'Unknown'
p1850
sVcom.xwidgetsoft.xwidget
p1851
S'Personalization'
p1852
sVcom.detxxn.wpass
p1853
S'Tools'
p1854
sVcom.samsung.music
p1855
S'Music &amp; Audio'
p1856
sVcom.ar.augment
p1857
S'Business'
p1858
sVjwein.acs.sonar
p1859
S'Casual'
p1860
sVcom.motorola.acousticwarning
p1861
S'Unknown'
p1862
sVcom.lingualy.lingualymobile
p1863
S'Education'
p1864
sVcom.ixigo.mypnr
p1865
S'Travel &amp; Local'
p1866
sVpdf.reader
p1867
S'Books &amp; Reference'
p1868
sVcom.sonyericsson.credentialmanagerservice
p1869
S'Unknown'
p1870
sVcom.motorola.android.omadm.sprint.systemdataservice
p1871
S'Unknown'
p1872
sVfr.geobert.radis
p1873
S'Finance'
p1874
sVcom.lge.LgHiddenMenu
p1875
S'Unknown'
p1876
sVcom.vlingo.odyssey
p1877
S'Unknown'
p1878
sVcom.motorola.quickview
p1879
S'Unknown'
p1880
sVcom.go.launcherex.theme.kxnt.miui
p1881
S'Unknown'
p1882
sVcom.hatcyl.android.ScreenTools2
p1883
S'Tools'
p1884
sVcom.asdamp.x_day
p1885
S'Tools'
p1886
sVcom.htc.linkedin
p1887
S'Unknown'
p1888
sVwsm.wifimousefree
p1889
S'Unknown'
p1890
sVcom.ceco.kitkat.gravitybox
p1891
S'Unknown'
p1892
sVorg.zooper.zwfree
p1893
S'Personalization'
p1894
sVcom.estrongs.android.pop
p1895
S'Productivity'
p1896
sVcom.swype.android.inputmethod
p1897
S'Unknown'
p1898
sVcom.android.musicfx
p1899
S'Unknown'
p1900
sVcom.samsung.rcs
p1901
S'Unknown'
p1902
sVcom.google.android.syncadapters.calendar
p1903
S'Unknown'
p1904
sVcom.hi.applock
p1905
S'Business'
p1906
sVcom.viber.voip
p1907
S'Communication'
p1908
sVfi.polar.beat
p1909
S'Health &amp; Fitness'
p1910
sVcom.google.android.talk
p1911
S'Communication'
p1912
sVio.vov.vitamio
p1913
S'Libraries &amp; Demo'
p1914
sVch.threema.app
p1915
S'Communication'
p1916
sVcom.sonymobile.faceregistration
p1917
S'Unknown'
p1918
sVcom.whatsapp
p1919
S'Communication'
p1920
sVcom.lima.doodlejump
p1921
S'Arcade'
p1922
sVcom.zagalaga.keeptrackpro
p1923
S'Productivity'
p1924
sVcom.osmino.wifil
p1925
S'Tools'
p1926
sVcom.jtschohl.donate.androidfirewall
p1927
S'Unknown'
p1928
sVcom.google.android.apps.authenticator2
p1929
S'Tools'
p1930
sVcom.isis.mclient.atnt.activity
p1931
S'Finance'
p1932
sVcom.tour.pgatour
p1933
S'Sports'
p1934
sVcom.google.android.apps.docs.editors.docs
p1935
S'Productivity'
p1936
sVair.com.bigfishgames.fairwaysolitaire2.google
p1937
S'Card'
p1938
sVcom.sec.android.providers.tasks
p1939
S'Unknown'
p1940
sVcom.bbm
p1941
S'Communication'
p1942
sVcom.cheezburger.icanhas
p1943
S'Entertainment'
p1944
sVcom.thehousenews.news
p1945
S'Unknown'
p1946
sVcom.dsd164.snake2k
p1947
S'Arcade'
p1948
sVcom.ammobile.acupain
p1949
S'Medical'
p1950
sVcom.namcobandaigames.pacmantournaments
p1951
S'Arcade'
p1952
sVcom.andrew.apollo.plus
p1953
S'Unknown'
p1954
sVnet.taobits.officecalculator.android.pro
p1955
S'Finance'
p1956
sVcom.dwdesign.tweetings
p1957
S'Social'
p1958
sVcom.teslacoilsw.notifier
p1959
S'Libraries &amp; Demo'
p1960
sVcom.pixelcrater.Diaro
p1961
S'Lifestyle'
p1962
sVbbc.mobile.news.ww
p1963
S'News &amp; Magazines'
p1964
sVcom.android.launcher
p1965
S'Unknown'
p1966
sVcom.motorola.motlauncher
p1967
S'Unknown'
p1968
sVcom.pdanet.tablet2
p1969
S'Communication'
p1970
sVcom.sec.android.app.shutdown
p1971
S'Unknown'
p1972
sVorg.fdroid.fdroid
p1973
S'Unknown'
p1974
sVcom.android.voicedialer
p1975
S'Unknown'
p1976
sVcom.svox.classic
p1977
S'Libraries &amp; Demo'
p1978
sVcom.sec.everglades
p1979
S'Unknown'
p1980
sVcom.sonymobile.gpssatellitesnotification
p1981
S'Unknown'
p1982
sVcom.motorola.widget.circlewidget3d
p1983
S'Unknown'
p1984
sVcom.bitmapgalaxy.lpg
p1985
S'Arcade'
p1986
sVcom.keyboardr.parkingwithglass
p1987
S'Transportation'
p1988
sVcom.asksven.betterbatterystats_xdaedition
p1989
S'Unknown'
p1990
sVcom.quickoffice.android
p1991
S'Unknown'
p1992
sVcom.armamp
p1993
S'Music &amp; Audio'
p1994
sVcom.google.android.inputmethod.latin.dictionarypack
p1995
S'Unknown'
p1996
sVfi.op.android.webbank
p1997
S'Finance'
p1998
sVcom.sec.android.widgetapp.SPlannerAppWidget
p1999
S'Unknown'
p2000
sVcom.sec.app.RilErrorNotifier
p2001
S'Unknown'
p2002
sVcom.LocalFota
p2003
S'Unknown'
p2004
sVcom.levelup.brightweather
p2005
S'Weather'
p2006
sVcom.sleepingbeastgames.spaceteam
p2007
S'Family'
p2008
sVnet.fidanov.landroid
p2009
S'Communication'
p2010
sVcom.tripadvisor.tripadvisor
p2011
S'Travel &amp; Local'
p2012
sVcom.maxmpz.audioplayer.widgetpack1
p2013
S'Music &amp; Audio'
p2014
sVcom.wuala.android
p2015
S'Tools'
p2016
sVnet.easypark.android
p2017
S'Travel &amp; Local'
p2018
sVcom.ninegag.android.x
p2019
S'Entertainment'
p2020
sVcom.motorola.motoemail
p2021
S'Unknown'
p2022
sVcom.instapaper.android
p2023
S'News &amp; Magazines'
p2024
sVcom.sparrows.wifihotspot
p2025
S'Unknown'
p2026
sVcom.sonymobile.smartconnect.raphael
p2027
S'Communication'
p2028
sVcom.lge.livewallpaper.prince
p2029
S'Unknown'
p2030
sVcom.motorola.dataoffloading
p2031
S'Unknown'
p2032
sVcom.htc.video
p2033
S'Unknown'
p2034
sVcom.sonymobile.tvout.wifidisplay
p2035
S'Unknown'
p2036
sVorg.mozilla.firefox_beta
p2037
S'Communication'
p2038
sVcom.sec.android.widgetapp.stockclock
p2039
S'Unknown'
p2040
sVcom.android.hiddenmenu
p2041
S'Unknown'
p2042
sVcom.fmm.ds
p2043
S'Unknown'
p2044
sVcom.xobni.contacts
p2045
S'Unknown'
p2046
sVcom.sec.android.app.gamehub
p2047
S'Unknown'
p2048
sVuk.co.senab.blueNotifyFree
p2049
S'Social'
p2050
sVde.worldiety.athentech.perfectlyclear
p2051
S'Photography'
p2052
sVcom.alltrails.alltrails
p2053
S'Travel &amp; Local'
p2054
sVcom.sec.ontouchreport
p2055
S'Unknown'
p2056
sVcom.htc.providers.syncml
p2057
S'Unknown'
p2058
sVtw.com.freedi.youtube_downloader
p2059
S'Unknown'
p2060
sVcom.acer.ccd
p2061
S'Tools'
p2062
sVcom.motorola.hotspotlauncher
p2063
S'Unknown'
p2064
sVcom.sonyericsson.lockscreen.uxpnxt
p2065
S'Unknown'
p2066
sVcom.imediapp.appgratisv3
p2067
S'Entertainment'
p2068
sVcom.owncloud.android
p2069
S'Productivity'
p2070
sVcom.itunestoppodcastplayer.app
p2071
S'News &amp; Magazines'
p2072
sVcom.lge.QuickClip
p2073
S'Unknown'
p2074
sVcom.tcs.ielect
p2075
S'Social'
p2076
sVcom.appspot.swisscodemonkeys.apps
p2077
S'Tools'
p2078
sVcom.julian.fastracing
p2079
S'Racing'
p2080
sVhotspotshield.android.vpn
p2081
S'Tools'
p2082
sVcom.synchronoss.dcs.att.r2g
p2083
S'Unknown'
p2084
sVcom.avg.cleaner
p2085
S'Tools'
p2086
sVsh.whisper
p2087
S'Social'
p2088
sVcom.samsung.everglades.video
p2089
S'Entertainment'
p2090
sVcom.handmark.tweetcaster
p2091
S'Social'
p2092
sVcom.benhirashima.skiplock
p2093
S'Tools'
p2094
sVcom.toma.lastest
p2095
S'Tools'
p2096
sVcom.dictionary
p2097
S'Books &amp; Reference'
p2098
sVcom.samsung.android.app.filterinstaller
p2099
S'Unknown'
p2100
sVcom.turner.cnvideoapp
p2101
S'Media &amp; Video'
p2102
sVcom.qin.bootreceiver
p2103
S'Unknown'
p2104
sVcom.mediatek.videofavorites
p2105
S'Unknown'
p2106
sVcom.sec.android.app.samsungapps.una2
p2107
S'Unknown'
p2108
sVcom.nightshadelabs.bluetoothvolume
p2109
S'Tools'
p2110
sVcom.waygoapp.waygo
p2111
S'Travel &amp; Local'
p2112
sVcom.guardian
p2113
S'News &amp; Magazines'
p2114
sVfr.slvn.mms
p2115
S'Communication'
p2116
sVorg.telegram.android.beta
p2117
S'Unknown'
p2118
sVcom.kitco.android.free.activities
p2119
S'Finance'
p2120
sVcom.sonyericsson.suquashi.soundpicker
p2121
S'Unknown'
p2122
sVnet.metaquotes.metatrader4
p2123
S'Finance'
p2124
sVcom.hancom.androidpc.viewer.launcher
p2125
S'Unknown'
p2126
sVfi.blockware.mroom
p2127
S'Lifestyle'
p2128
sVjp.co.taosoftware.android.packetcapturepro
p2129
S'Tools'
p2130
sVcom.motorola.contextual.smartrules2
p2131
S'Tools'
p2132
sVcom.netguru.ibreviary
p2133
S'Books &amp; Reference'
p2134
sVcom.tumblr
p2135
S'Social'
p2136
sVtv.peel.samsung.app
p2137
S'Media &amp; Video'
p2138
sVcom.sec.esdk.elm
p2139
S'Unknown'
p2140
sVcom.shazam.encore.android
p2141
S'Music &amp; Audio'
p2142
sVpt.sapo.mobile.android.musicbox
p2143
S'Entertainment'
p2144
sVsachith.com.dictionary.offline
p2145
S'Books &amp; Reference'
p2146
sVnet.thecloud.fastconnect
p2147
S'Travel &amp; Local'
p2148
sVcom.flowers1800.androidapp2
p2149
S'Shopping'
p2150
sVcom.threebanana.notes
p2151
S'Unknown'
p2152
sVcom.umonistudio.tile
p2153
S'Arcade'
p2154
sVcom.sonyericsson.extras.liveware.extension.calendar.control
p2155
S'Tools'
p2156
sVdev.dworks.apps.anexplorer.pro
p2157
S'Tools'
p2158
sVcom.samsung.vmmhux
p2159
S'Unknown'
p2160
sVcom.defianttech.diskdigger
p2161
S'Tools'
p2162
sVmobi.beyondpod.hd
p2163
S'News &amp; Magazines'
p2164
sVcom.wunderkinder.wunderlistandroid
p2165
S'Productivity'
p2166
sVcom.byeline.hackex
p2167
S'Simulation'
p2168
sVcom.ventismedia.android.mediamonkey
p2169
S'Music &amp; Audio'
p2170
sVcom.thetiltalarm.app
p2171
S'Lifestyle'
p2172
sVcom.mobilefitness.nykredit
p2173
S'Health &amp; Fitness'
p2174
sVcom.mediatek.omacp
p2175
S'Unknown'
p2176
sVcom.neulion.android.sporttv
p2177
S'Sports'
p2178
sVcom.entwicklerx.shuffleboard
p2179
S'Casual'
p2180
sVanother.music.player
p2181
S'Music &amp; Audio'
p2182
sVde.web.mobile.android.mail
p2183
S'Communication'
p2184
sVcom.nerdyoctopus.gamedots
p2185
S'Casual'
p2186
sVfi.sampopankki.android.tribank
p2187
S'Finance'
p2188
sVcom.wBackgroundCheckAndroid
p2189
S'Unknown'
p2190
sVcom.lge.appwidget.clock
p2191
S'Unknown'
p2192
sVcom.wildtangent.android
p2193
S'Unknown'
p2194
sVcom.amazon.kindle
p2195
S'Books &amp; Reference'
p2196
sVcom.appiator.dampro
p2197
S'Productivity'
p2198
sVbr.com.golmobile.nypost
p2199
S'News &amp; Magazines'
p2200
sVcom.xorware.network.s2g3g.settings
p2201
S'Personalization'
p2202
sVcom.bitfire.development.calendarsnooze.key
p2203
S'Productivity'
p2204
sVcom.td
p2205
S'Finance'
p2206
sVcom.contapps.android.dialer
p2207
S'Communication'
p2208
sVpt.ptinovacao.iad.meoremote
p2209
S'Entertainment'
p2210
sVcom.lge.sizechangable.worldclock
p2211
S'Unknown'
p2212
sVcom.morefans.tools.spycamera
p2213
S'Unknown'
p2214
sVcom.android.providers.calendar
p2215
S'Unknown'
p2216
sVcom.htc.backup
p2217
S'Tools'
p2218
sVcom.android.musicvis
p2219
S'Unknown'
p2220
sVcom.mttnow.droid.easyjet
p2221
S'Travel &amp; Local'
p2222
sVcom.sonyericsson.simcontacts
p2223
S'Unknown'
p2224
sVcom.rovio.angrybirdsspace.premium
p2225
S'Arcade'
p2226
sVcom.devexpert.weatheradfree
p2227
S'Weather'
p2228
sVcom.status.bright
p2229
S'Tools'
p2230
sVcom.google.android.apps.currents
p2231
S'News &amp; Magazines'
p2232
sVcom.sec.android.app.wfdbroker
p2233
S'Unknown'
p2234
sVcom.maize.digitalClock
p2235
S'Tools'
p2236
sVcom.waplog.social
p2237
S'Social'
p2238
sVorg.omnirom.torch
p2239
S'Unknown'
p2240
sVcom.webascender.callerid
p2241
S'Communication'
p2242
sVcom.battlelancer.seriesguide
p2243
S'Entertainment'
p2244
sVcom.abnamro.nl.mobile.payments
p2245
S'Finance'
p2246
sVcom.cerisierbleu.qac
p2247
S'Tools'
p2248
sVcom.lge.keepscreenon
p2249
S'Unknown'
p2250
sVcom.ninja.sms.promo
p2251
S'Communication'
p2252
sVcom.mrnumber.blocker
p2253
S'Communication'
p2254
sVcom.Kajakki.Venyttely
p2255
S'Unknown'
p2256
sVcom.sec.android.cloudagent
p2257
S'Unknown'
p2258
sVcom.beenverified.android
p2259
S'Tools'
p2260
sVcom.lge.lginstallservies
p2261
S'Unknown'
p2262
sVde.simyo.app.android.meinsimyo
p2263
S'Productivity'
p2264
sVcom.sec.android.app.servicemodeapp
p2265
S'Unknown'
p2266
sVbe.persgroep.android.news.mobilead
p2267
S'News &amp; Magazines'
p2268
sVnl.freed.meddossier
p2269
S'Medical'
p2270
sVcom.android.wallpaper.livepicker
p2271
S'Unknown'
p2272
sVcom.mediatek.systemupdate.sysoper
p2273
S'Unknown'
p2274
sVorg.thoughtcrime.securesms
p2275
S'Communication'
p2276
sVcom.samsung.vvm
p2277
S'Unknown'
p2278
sVcom.vcast.mediamanager
p2279
S'Productivity'
p2280
sVcom.fsecure.mobile.contentanywhere.fsc
p2281
S'Social'
p2282
sVcom.samsung.shareshot
p2283
S'Unknown'
p2284
sVcom.tuneit.pingtune.prod
p2285
S'Communication'
p2286
sVcom.roadtrippers
p2287
S'Travel &amp; Local'
p2288
sVcom.reactor.linereversals
p2289
S'Sports'
p2290
sVcom.airbnb.android
p2291
S'Travel &amp; Local'
p2292
sVcom.antutu.ABenchMark
p2293
S'Tools'
p2294
sVcom.sonymobile.whitebalance
p2295
S'Unknown'
p2296
sVcom.costco.app.android
p2297
S'Lifestyle'
p2298
sVcom.arf.weatherstation
p2299
S'Weather'
p2300
sVnet.nurik.roman.dashclock
p2301
S'Personalization'
p2302
sVvStudio.Android.Camera360
p2303
S'Photography'
p2304
sVcom.pantech.filemanager
p2305
S'Unknown'
p2306
sVcom.lge.clock
p2307
S'Unknown'
p2308
sVcom.sec.ims.android
p2309
S'Unknown'
p2310
sVcom.smartandroidapps.audiowidgetpro
p2311
S'Media &amp; Video'
p2312
sVeu.nordeus.topeleven.android
p2313
S'Sports'
p2314
sVhyperfine.chimes
p2315
S'Personalization'
p2316
sVcom.viaforensics.viaprotect.android.agent
p2317
S'Tools'
p2318
sVcom.wunderground.android.weather
p2319
S'Weather'
p2320
sVcom.android.incallui
p2321
S'Unknown'
p2322
sVcom.matchboxmobile.wisp
p2323
S'Unknown'
p2324
sVcom.andrewshu.android.reddit
p2325
S'News &amp; Magazines'
p2326
sVcom.eboks.activities
p2327
S'Productivity'
p2328
sVcom.sp.protector.free
p2329
S'Tools'
p2330
sVcom.hotornot.app
p2331
S'Lifestyle'
p2332
sVcom.pantech.app.skycamera
p2333
S'Unknown'
p2334
sVcom.sonymobile.phoneusage
p2335
S'Unknown'
p2336
sVcom.cozi.androidfree
p2337
S'Productivity'
p2338
sVnet.tsapps.appsales
p2339
S'Shopping'
p2340
sVcom.sprint.ce.updater
p2341
S'Unknown'
p2342
sVcom.cerience.reader.app
p2343
S'Unknown'
p2344
sVcom.gameloft.android.HEP.GloftRKHP
p2345
S'Unknown'
p2346
sVcom.lge.eula
p2347
S'Unknown'
p2348
sVcom.klncity1.emojikeyboard
p2349
S'Tools'
p2350
sVcom.android.settings.mt
p2351
S'Unknown'
p2352
sVcom.pushbullet.android
p2353
S'Productivity'
p2354
sVcom.gr8memo.android
p2355
S'Photography'
p2356
sVcom.teslacoilsw.flashlight
p2357
S'Tools'
p2358
sVcom.flyingottersoftware.mega
p2359
S'Productivity'
p2360
sVcom.hancom.office.hword.viewer.hword_apk
p2361
S'Unknown'
p2362
sVcom.microsoft.office.onenote
p2363
S'Productivity'
p2364
sVcom.omersezer.portugalfootball
p2365
S'Unknown'
p2366
sVcom.skt.apra
p2367
S'Unknown'
p2368
sVcom.jrummy.liberty.toolboxpro
p2369
S'Tools'
p2370
sVcom.noshufou.android.su
p2371
S'Tools'
p2372
sVcom.asurion.android.mobilerecovery.att
p2373
S'Tools'
p2374
sVcom.motorola.vzw.phone.extensions
p2375
S'Unknown'
p2376
sVmikado.bizcalpro
p2377
S'Productivity'
p2378
sVcom.quvideo.xiaoying
p2379
S'Media &amp; Video'
p2380
sVcom.sec.android.widgetapp.alarmwidget
p2381
S'Unknown'
p2382
sVcom.HD_Flash_Video_Player_20524
p2383
S'Unknown'
p2384
sVcom.sec.android.sCloudRelayData
p2385
S'Unknown'
p2386
sVcom.asurion.android.verizon.vms
p2387
S'Tools'
p2388
sVcom.samsung.android.scloud.auth
p2389
S'Unknown'
p2390
sVcom.htc.sense.ime
p2391
S'Tools'
p2392
sVcom.google.android.wearablepreview.app
p2393
S'Unknown'
p2394
sVcom.a0soft.gphone.aDataOnOff
p2395
S'Productivity'
p2396
sVcom.techahead.ExpenseManager
p2397
S'Finance'
p2398
sVcom.SIMAPNCheck
p2399
S'Travel &amp; Local'
p2400
sVcom.digiplex.game
p2401
S'Puzzle'
p2402
sVcom.soundcloud.android
p2403
S'Music &amp; Audio'
p2404
sVcom.miui.home
p2405
S'Unknown'
p2406
sVcom.sec.android.widgetapp.ap.hero.kweather
p2407
S'Unknown'
p2408
sVde.orrs.deliveries
p2409
S'Productivity'
p2410
sVcom.lge.tangible
p2411
S'Unknown'
p2412
sVcom.rovio.angrybirds
p2413
S'Arcade'
p2414
sVuk.co.o2.android.myo2
p2415
S'Tools'
p2416
sVcom.mediatek.datatransfer
p2417
S'Unknown'
p2418
sVcom.motorola.android.dm.service
p2419
S'Unknown'
p2420
sVcom.handmark.expressweather
p2421
S'Weather'
p2422
sVcom.kk.launcher
p2423
S'Personalization'
p2424
sVcom.rockchip.shelves.appwidget
p2425
S'Unknown'
p2426
sVcom.colapps.reminder
p2427
S'Tools'
p2428
sVcom.sonyericsson.home
p2429
S'Unknown'
p2430
sVcom.motorola.homescreen
p2431
S'Unknown'
p2432
sVmobi.infolife.appbackup
p2433
S'Productivity'
p2434
sVcom.prey
p2435
S'Tools'
p2436
sVcom.speedsoftware.explorer
p2437
S'Productivity'
p2438
sVcom.ta.volumecontrol
p2439
S'Unknown'
p2440
sVde.gebdev.aWARemotePro
p2441
S'Music &amp; Audio'
p2442
sVcom.samsung.android.app.colorblind
p2443
S'Unknown'
p2444
sVcom.daylightmap.moon.pro.android
p2445
S'Books &amp; Reference'
p2446
sVcom.nimagl2.apps.gmaps
p2447
S'Unknown'
p2448
sVcom.enflick.android.ping
p2449
S'Social'
p2450
sVcom.sonyericsson.retaildemo
p2451
S'Unknown'
p2452
sVcom.angrydoughnuts.android.alarmclock
p2453
S'Tools'
p2454
sVjavax.microedition.ims
p2455
S'Unknown'
p2456
sVcom.att.android.mobile.attmessages
p2457
S'Communication'
p2458
sVcom.yunio
p2459
S'Tools'
p2460
sVcom.iobit.mobilecare.pcsync
p2461
S'Unknown'
p2462
sVcom.fb.looprtaskswitcher
p2463
S'Personalization'
p2464
sVcom.fsecure.app.permissions.privacy
p2465
S'Tools'
p2466
sVcom.sonymobile.remotestorage
p2467
S'Unknown'
p2468
sVcom.aware.plugin.modeoftransportation
p2469
S'Unknown'
p2470
sVcom.motorola.zap
p2471
S'Media &amp; Video'
p2472
sVorg.xbmc.android.remote
p2473
S'Media &amp; Video'
p2474
sVcom.sec.android.sviewcover
p2475
S'Unknown'
p2476
sVcom.opentecheng.paginegialle.dream
p2477
S'Lifestyle'
p2478
sVcom.hedami.musicplayerremix
p2479
S'Music &amp; Audio'
p2480
sVcom.lmi.htc.rescue
p2481
S'Unknown'
p2482
sVsstream.app
p2483
S'Unknown'
p2484
sVcraigs.pro.plus
p2485
S'Lifestyle'
p2486
sVcom.nhl.gc1314.njd
p2487
S'Sports'
p2488
sVcom.samsung.sprint.chameleon
p2489
S'Unknown'
p2490
sVcom.vrs.calllogger
p2491
S'Communication'
p2492
sVcom.gadgetjuice.dockclock
p2493
S'Lifestyle'
p2494
sVcom.lge.shutdownmonitor
p2495
S'Unknown'
p2496
sVcom.amazon.mp3
p2497
S'Music &amp; Audio'
p2498
sVcom.timsu.astrid
p2499
S'Unknown'
p2500
sVmikrosmile.kontrol
p2501
S'Unknown'
p2502
sVorg.wikipedia
p2503
S'Books &amp; Reference'
p2504
sVcom.dealnews.android.ui
p2505
S'Shopping'
p2506
sVcom.sonyericsson.unsupportedheadsetnotifier
p2507
S'Unknown'
p2508
sVcom.sec.android.daemonapp.ap.accuweather
p2509
S'Unknown'
p2510
sVnz.co.vodafone.android.myaccount
p2511
S'Tools'
p2512
sVcom.google.android.feedback
p2513
S'Unknown'
p2514
sVorg.zapto.samhippiemiddlepoolchecker
p2515
S'Tools'
p2516
sVcom.yahoo.mobile.client.android.mail
p2517
S'Communication'
p2518
sVcom.scannerradio
p2519
S'Entertainment'
p2520
sVcom.htc.reportagent
p2521
S'Unknown'
p2522
sVde.devmil.minimaltext
p2523
S'Personalization'
p2524
sVsportonnet.com.sporttvorg
p2525
S'Unknown'
p2526
sVcom.bluebox.labs.onerootscanner
p2527
S'Tools'
p2528
sVcom.htc.sense.mms
p2529
S'Unknown'
p2530
sVcom.jrdcom.ui.notes
p2531
S'Unknown'
p2532
sVcom.sonyericsson.android.camera3d
p2533
S'Unknown'
p2534
sVcom.maildroid.pro
p2535
S'Communication'
p2536
sVcom.holiestar.flashoncall
p2537
S'Unknown'
p2538
sVfr.depoortere.android.CircleBatteryWidget
p2539
S'Tools'
p2540
sVcom.functionx.viggle
p2541
S'Entertainment'
p2542
sVcom.motorola.motocare
p2543
S'Unknown'
p2544
sVcom.wetter.androidclient
p2545
S'Weather'
p2546
sVcom.sec.android.widgetapp.dualclockdigital4x2
p2547
S'Unknown'
p2548
sVcom.alensw.PicFolder
p2549
S'Photography'
p2550
sVcom.gamestar.perfectpiano
p2551
S'Music'
p2552
sVcom.vzw.sms
p2553
S'Unknown'
p2554
sVcom.sony.smallapp.managerservice
p2555
S'Unknown'
p2556
sVcom.lge.drmservice
p2557
S'Unknown'
p2558
sVcz.aponia.bor3
p2559
S'Travel &amp; Local'
p2560
sVcom.linkedin.android
p2561
S'Social'
p2562
sVcom.instagram.android
p2563
S'Social'
p2564
sVcom.sonyericsson.soundenhancement
p2565
S'Unknown'
p2566
sVcom.android.ActivityNetwork
p2567
S'Unknown'
p2568
sVcom.cardcam.QTranslator
p2569
S'Unknown'
p2570
sVcom.cootek.smartinputv5
p2571
S'Productivity'
p2572
sVcom.endomondo.android.pro
p2573
S'Health &amp; Fitness'
p2574
sVcom.urbandroid.sleep.addon.stats
p2575
S'Unknown'
p2576
sVcom.htc.clock3dwidget
p2577
S'Unknown'
p2578
sVuk.co.nickfines.RealCalc
p2579
S'Productivity'
p2580
sVorg.sabda.renunganpsm
p2581
S'Books &amp; Reference'
p2582
sVcom.wsomacp
p2583
S'Unknown'
p2584
sVcom.ratebeer.android
p2585
S'Lifestyle'
p2586
sVcom.gvoip
p2587
S'Communication'
p2588
sVcom.bodybuilding.mobile
p2589
S'Health &amp; Fitness'
p2590
sVcom.surpax.ledflashlight.panel
p2591
S'Productivity'
p2592
sVdk.danskebank.android.tribank
p2593
S'Finance'
p2594
sVcom.sec.android.app.snotebook
p2595
S'Unknown'
p2596
sVcom.birbeck.android.coverart
p2597
S'Music &amp; Audio'
p2598
sVcom.zuomj.android.countdown
p2599
S'Lifestyle'
p2600
sVcom.andrwq.recorder
p2601
S'Music &amp; Audio'
p2602
sVcom.sec.android.widgetapp.at.yahoostock.stockclock
p2603
S'Unknown'
p2604
sVcom.BinauralBeatsMusic05_3
p2605
S'Lifestyle'
p2606
sVcom.hp.android.print
p2607
S'Photography'
p2608
sVcom.wObrowser
p2609
S'Unknown'
p2610
sVcom.sec.android.service.health.sensor
p2611
S'Unknown'
p2612
sVcom.alienmanfc6.wheresmyandroid
p2613
S'Tools'
p2614
sVcom.gumtree.android
p2615
S'Lifestyle'
p2616
sVcom.wiresareobsolete.tripmaster
p2617
S'Unknown'
p2618
sVcom.bel.android.dspmanager
p2619
S'Music &amp; Audio'
p2620
sVcom.sonymobile.playanywhere
p2621
S'Unknown'
p2622
sVkr.dinosoft.android.ExperienceG3Note_gl
p2623
S'Business'
p2624
sVhu.xilard.voiceplus
p2625
S'Communication'
p2626
sVcom.futuredial
p2627
S'Unknown'
p2628
sVcom.mathrawk.calleridfaker
p2629
S'Communication'
p2630
sVcom.sec.android.daemonapp.ap.yahoostock.stockclock
p2631
S'Unknown'
p2632
sVcom.sec.android.daemonapp.accuweather
p2633
S'Unknown'
p2634
sVcom.sonymobile.aptx.notifier
p2635
S'Unknown'
p2636
sVmobi.infolife.uninstaller
p2637
S'Productivity'
p2638
sVcom.htc.powersavinglauncher
p2639
S'Unknown'
p2640
sVcom.gongchangstudio.minimalanydowidget
p2641
S'Productivity'
p2642
sVnet.wigle.wigleandroid
p2643
S'Tools'
p2644
sVcom.motorola.context
p2645
S'Tools'
p2646
sVcom.android.bluetooth
p2647
S'Unknown'
p2648
sVde.fcbayern.android
p2649
S'Sports'
p2650
sVgoogoo.android.gesturebar
p2651
S'Unknown'
p2652
sVcom.sec.android.app.snsimagecache
p2653
S'Unknown'
p2654
sVcom.evernote.food
p2655
S'Lifestyle'
p2656
sVcom.infraware.polarisviewer
p2657
S'Unknown'
p2658
sVcom.fooducate.nutritionapp
p2659
S'Health &amp; Fitness'
p2660
sVcom.podkicker
p2661
S'Media &amp; Video'
p2662
sVcom.android.rk.books
p2663
S'Unknown'
p2664
sVcom.ebay.mobile
p2665
S'Shopping'
p2666
sVcom.qualcomm.shutdownlistner
p2667
S'Unknown'
p2668
sVcom.lge.gnss.airtest
p2669
S'Unknown'
p2670
sVcom.flywheelsoft.goodmorning
p2671
S'Productivity'
p2672
sVcom.sonyericsson.setupwizard
p2673
S'Unknown'
p2674
sVsk.michalec.SimpleDigiClockWidget
p2675
S'Personalization'
p2676
sVit.mvilla.fenix.preview
p2677
S'Unknown'
p2678
sVcom.lifehacker.mobile
p2679
S'Unknown'
p2680
sVcom.sonyericsson.metadatacleanup
p2681
S'Unknown'
p2682
sVspinninghead.carhome
p2683
S'Transportation'
p2684
sVcom.zite
p2685
S'News &amp; Magazines'
p2686
sVcom.sony.smallapp.app.widget
p2687
S'Unknown'
p2688
sVimoblife.memorybooster.lite
p2689
S'Productivity'
p2690
sVeu.chainfire.opendelta
p2691
S'Unknown'
p2692
sVcom.corcop.menote
p2693
S'Unknown'
p2694
sVie.rational.services.rush.poker.net
p2695
S'Card'
p2696
sVcom.sonicwall.mobileconnect
p2697
S'Business'
p2698
sVcom.android.mms
p2699
S'Unknown'
p2700
sVcom.motorola.smartcardock
p2701
S'Unknown'
p2702
sVcom.iudesk.android.photo.editor
p2703
S'Photography'
p2704
sVcom.hemispheregames.osmos.tablet.humble
p2705
S'Unknown'
p2706
sVair.com.kr3m.Slotcar
p2707
S'Arcade'
p2708
sVappinventor.ai_whatsyouremail.Signature
p2709
S'Business'
p2710
sVcom.amazon.clouddrive.photos
p2711
S'Photography'
p2712
sVcom.htc.HTCSpeaker.overlayui
p2713
S'Unknown'
p2714
sVcom.sonymobile.tasks
p2715
S'Unknown'
p2716
sVcom.sipgate
p2717
S'Unknown'
p2718
sVcom.FireproofStudios.TheRoom2
p2719
S'Puzzle'
p2720
sVcom.tmobile.selfhelp
p2721
S'Tools'
p2722
sVcom.motorola.digitalpersonalization
p2723
S'Unknown'
p2724
sVjoansoft.dailybible
p2725
S'Books &amp; Reference'
p2726
sVcom.sec.setdefaultbrowser
p2727
S'Unknown'
p2728
sVcom.rk.settings.widget
p2729
S'Unknown'
p2730
sVorg.ideavivo.android.weatheralert
p2731
S'Weather'
p2732
sVcom.google.android.apps.maps
p2733
S'Travel &amp; Local'
p2734
sVcom.hancom.androidpc.appwidget
p2735
S'Unknown'
p2736
sVcom.sec.sprextension
p2737
S'Unknown'
p2738
sVcom.jamworks.sidecuts
p2739
S'Personalization'
p2740
sVcom.koushikdutta.cast
p2741
S'Media &amp; Video'
p2742
sVcom.mediatek.schpwronoff
p2743
S'Unknown'
p2744
sVcom.bestappsmarket.android.bestapps
p2745
S'Tools'
p2746
sVcom.aguirre.android.mycar.activity
p2747
S'Transportation'
p2748
sVoffshore.vlc
p2749
S'Unknown'
p2750
sVcom.sonyericsson.androidapp.storefront
p2751
S'Unknown'
p2752
sVcom.familywall
p2753
S'Lifestyle'
p2754
sVcom.slim.ota
p2755
S'Unknown'
p2756
sVcom.sec.android.app.worldclock
p2757
S'Unknown'
p2758
sVcom.dagwaging.tppnotifier
p2759
S'Entertainment'
p2760
sVcom.sec.android.sCloudBackupProvider
p2761
S'Unknown'
p2762
sVcom.cleanmaster.security.struts2
p2763
S'Tools'
p2764
sVcom.iliumsoft.android.ewallet.rw
p2765
S'Productivity'
p2766
sVhr.dentex.dentex
p2767
S'Productivity'
p2768
sVcom.wakdev.nfctasks
p2769
S'Tools'
p2770
sVcom.lexulous.Lexulous
p2771
S'Word'
p2772
sVcom.wsandroid.suite.vodaemea
p2773
S'Tools'
p2774
sVcom.motorola.calendar
p2775
S'Unknown'
p2776
sVcom.visionobjects.resourcemanager
p2777
S'Unknown'
p2778
sVcom.huawei.android.hwouc
p2779
S'Unknown'
p2780
sVcom.andromo.dev22397.app140830
p2781
S'News &amp; Magazines'
p2782
sVcom.mridang.whatsapp
p2783
S'Unknown'
p2784
sVcom.gn.android.compass
p2785
S'Tools'
p2786
sVcom.koushikdutta.rommanager.license
p2787
S'Tools'
p2788
sVcom.rhmsoft.fm
p2789
S'Business'
p2790
sVcom.ovh.android.cloudnasfrontend
p2791
S'Communication'
p2792
sVcom.pantech.simplehome
p2793
S'Unknown'
p2794
sVcom.ideashower.readitlater.pro
p2795
S'News &amp; Magazines'
p2796
sVcom.emtrace.hermes
p2797
S'Unknown'
p2798
sVcom.forpda.lp
p2799
S'Unknown'
p2800
sVcom.scee.psxandroid
p2801
S'Entertainment'
p2802
sVcom.meecel.feedreader.RssDemonAd
p2803
S'News &amp; Magazines'
p2804
sVcom.sec.android.app.popupcalculator
p2805
S'Unknown'
p2806
sVcom.sec.android.app.ve
p2807
S'Tools'
p2808
sVcom.handmark.tweetcaster.premium
p2809
S'Social'
p2810
sVcom.rhapsody
p2811
S'Music &amp; Audio'
p2812
sVcom.nll.asr
p2813
S'Productivity'
p2814
sVcom.app.unotelly
p2815
S'Media &amp; Video'
p2816
sVcom.crom.cromota
p2817
S'Unknown'
p2818
sVcom.wikia.singlewikia.leagueoflegends
p2819
S'Entertainment'
p2820
sVcom.opera.mini.next.android
p2821
S'Unknown'
p2822
sVcom.tokasiki.android.voicerecorder
p2823
S'Productivity'
p2824
sVcom.metropcs.service.vvm
p2825
S'Business'
p2826
sVcom.chrislacy.actionlauncher.pro
p2827
S'Personalization'
p2828
sVcom.sec.android.app.factorytest
p2829
S'Unknown'
p2830
sVorg.geometerplus.zlibrary.ui.android
p2831
S'Books &amp; Reference'
p2832
sVcom.csam.gazelle.activity
p2833
S'Unknown'
p2834
sVcom.opda.actionpoint
p2835
S'Tools'
p2836
sVkik.android
p2837
S'Communication'
p2838
sVcom.danzoye.app.budidanbadu
p2839
S'Comics'
p2840
sVcom.blueant.android
p2841
S'Communication'
p2842
sVcom.sonyericsson.fmradio
p2843
S'Unknown'
p2844
sVcom.android.onetimeinitializer
p2845
S'Unknown'
p2846
sVcloudtv.hdwidgets
p2847
S'Personalization'
p2848
sVcom.codemasters.cmrally
p2849
S'Racing'
p2850
sVcom.kayak.android
p2851
S'Travel &amp; Local'
p2852
sVcom.klinker.android.evolve_sms
p2853
S'Communication'
p2854
sVcom.motorola.settings
p2855
S'Unknown'
p2856
sVde.hafas.android.db
p2857
S'Transportation'
p2858
sVcom.samsung.android.snote
p2859
S'Unknown'
p2860
sVcom.anod.calendar
p2861
S'Productivity'
p2862
sVcom.google.android.launcher
p2863
S'Tools'
p2864
sVcom.cyanogenmod.account
p2865
S'Unknown'
p2866
sVcom.gumieurope.bravefrontier
p2867
S'Role Playing'
p2868
sVcom.eolwral.osmonitor
p2869
S'Tools'
p2870
sVtodd.hudson.ideclare
p2871
S'Unknown'
p2872
sVcom.sec.android.pagebuddynotisvc
p2873
S'Unknown'
p2874
sVcom.nuance.swype.amz
p2875
S'Unknown'
p2876
sVcom.hushed.release
p2877
S'Communication'
p2878
sVcom.starbucks.mobilecard
p2879
S'Lifestyle'
p2880
sVcom.clippersync.android.plugin
p2881
S'Libraries &amp; Demo'
p2882
sVflashlight.led.clock
p2883
S'Productivity'
p2884
sVnet.nurik.roman.muzei
p2885
S'Personalization'
p2886
sVcom.aware.probe.china
p2887
S'Unknown'
p2888
sVcom.wordsmobile.speedracing
p2889
S'Racing'
p2890
sVcom.sonyericsson.androidapp.smart
p2891
S'Unknown'
p2892
sVde.mehrmann.sdbooster
p2893
S'Tools'
p2894
sVcom.ea.game.pvz2_row
p2895
S'Casual'
p2896
sVcom.luckyme.alertpopup
p2897
S'Productivity'
p2898
sVcom.htc.shoebox.engine.relevance
p2899
S'Unknown'
p2900
sVcom.anydo
p2901
S'Productivity'
p2902
sVcom.avast.android.at_play
p2903
S'Tools'
p2904
sVcom.loxai
p2905
S'Media &amp; Video'
p2906
sVcom.fossor.wheellauncher
p2907
S'Personalization'
p2908
sVcom.evernote
p2909
S'Productivity'
p2910
sVcom.sammobile.app
p2911
S'Social'
p2912
sVcom.turborilla.MadSkillsMotocross2
p2913
S'Racing'
p2914
sVorg.videolan.vlc.betav7neon
p2915
S'Media &amp; Video'
p2916
sVcom.sonymobile.mirrorlink.system
p2917
S'Unknown'
p2918
sVair.byss.mobi.instaweatherfree
p2919
S'Weather'
p2920
sVcom.sec.android.app.clockpackage
p2921
S'Unknown'
p2922
sVcom.vtcreator.android360
p2923
S'Photography'
p2924
sVcom.binerx.aptrax
p2925
S'Tools'
p2926
sVcn.wps.moffice_eng
p2927
S'Business'
p2928
sVcom.bazinga.cacheclean
p2929
S'Tools'
p2930
sVcom.anddoes.launcher
p2931
S'Personalization'
p2932
sVcom.tocaboca.tocalab
p2933
S'Education'
p2934
sVcom.urbandroid.sleep.full.key
p2935
S'Lifestyle'
p2936
sVcom.underwood.calendar_beta
p2937
S'Productivity'
p2938
sVcom.taxaly.noteme
p2939
S'Tools'
p2940
sVcom.sleepgenius.standard
p2941
S'Unknown'
p2942
sVcom.example.testeconfig
p2943
S'Unknown'
p2944
sVcom.android.nfc
p2945
S'Unknown'
p2946
sVcom.petavision.clonecameraandroid
p2947
S'Photography'
p2948
sVcom.care.android.careview
p2949
S'Lifestyle'
p2950
sVcom.sec.android.app.samsungapps
p2951
S'Entertainment'
p2952
sVcom.teamviewer.quicksupport.market
p2953
S'Productivity'
p2954
sVcom.microsoft.onx.app
p2955
S'Personalization'
p2956
sVcom.rws.dungelotFree
p2957
S'Arcade'
p2958
sVcom.hetweer.in.nl
p2959
S'Weather'
p2960
sVcom.gameloft.android.GAND.GloftA8SS
p2961
S'Unknown'
p2962
sVcom.samsung.mediahub.sprint
p2963
S'Entertainment'
p2964
sVnet.flixster.android
p2965
S'Entertainment'
p2966
sVcom.cisco.anyconnect.vpn.android.samsung
p2967
S'Business'
p2968
sVcom.app.pornhub
p2969
S'Unknown'
p2970
sVcom.meraki.sm
p2971
S'Business'
p2972
sVcom.myfitnesspal.android
p2973
S'Health &amp; Fitness'
p2974
sVcom.sonymobile.notes
p2975
S'Unknown'
p2976
sVcom.kikin.settings
p2977
S'Unknown'
p2978
sVcom.idmobile.horoscope
p2979
S'Lifestyle'
p2980
sVcom.audible.application
p2981
S'Books &amp; Reference'
p2982
sVcom.plexnor.gravityscreenoffpro
p2983
S'Tools'
p2984
sVcom.google.zxing.client.android
p2985
S'Shopping'
p2986
sVcom.sec.app.samsungprintservice
p2987
S'Productivity'
p2988
sVcom.tvshowfavs
p2989
S'Entertainment'
p2990
sVcom.motorola.contextual.smartrules
p2991
S'Tools'
p2992
sVcom.quoord.tapatalkpro.activity
p2993
S'Social'
p2994
sVcom.intuit.quicken
p2995
S'Finance'
p2996
sVcom.liveov.rebooter
p2997
S'Unknown'
p2998
sVcom.kevinforeman.sabconnect
p2999
S'Unknown'
p3000
sVcom.motorola.vzw.settings.extensions
p3001
S'Unknown'
p3002
sVcom.vcmdev.android.people
p3003
S'Communication'
p3004
sVcom.good.android.gfe
p3005
S'Productivity'
p3006
sVcom.superphunlabs.speedgauge
p3007
S'Transportation'
p3008
sVcom.pindroid
p3009
S'Productivity'
p3010
sVcom.techorocks.quickapp.ultimate
p3011
S'Productivity'
p3012
sVcom.ktighe.mynetflixq
p3013
S'Unknown'
p3014
sVcom.greatbytes.fastrebootpro
p3015
S'Tools'
p3016
sVcom.luckyxmobile.timers4meplus
p3017
S'Productivity'
p3018
sVmsd.n2g.n3g.sell
p3019
S'Unknown'
p3020
sVcom.picsart.studio
p3021
S'Photography'
p3022
sVcom.ss.launcher.to
p3023
S'Personalization'
p3024
sVcom.bwx.bequick
p3025
S'Productivity'
p3026
sVcom.sec.android.preloadinstaller
p3027
S'Unknown'
p3028
sVcom.sonyericsson.devicemonitor
p3029
S'Unknown'
p3030
sVcom.weathersphere.noaa_hidef_radar
p3031
S'Weather'
p3032
sVcom.pikpok.gbod
p3033
S'Arcade'
p3034
sVcom.rookiestudio.perfectviewer
p3035
S'Comics'
p3036
sVroman10.media.converter
p3037
S'Media &amp; Video'
p3038
sVcom.example.android.skeletonapp
p3039
S'Health &amp; Fitness'
p3040
sVmenion.android.locus.pro
p3041
S'Travel &amp; Local'
p3042
sVcom.lge.filemanager
p3043
S'Unknown'
p3044
sVcom.andy.vape
p3045
S'Health &amp; Fitness'
p3046
sVcom.sec.android.app.twlauncher
p3047
S'Unknown'
p3048
sVcom.sec.android.app.SecSetupWizard
p3049
S'Unknown'
p3050
sVcom.aor.droidicious.free
p3051
S'Productivity'
p3052
sVcom.mapswithme.maps.pro
p3053
S'Travel &amp; Local'
p3054
sVcom.hbwares.wordfeud.free
p3055
S'Word'
p3056
sVcom.june.guessthemovie
p3057
S'Trivia'
p3058
sVcom.mx.browser
p3059
S'Communication'
p3060
sVcom.p_phone_sf.trial.android
p3061
S'Communication'
p3062
sVcom.riilabs.app.AndroWin
p3063
S'Communication'
p3064
sVcom.citi.citimobile
p3065
S'Finance'
p3066
sVnl.twentefans
p3067
S'Sports'
p3068
sVcom.quoord.tapatalkxda.activity
p3069
S'Communication'
p3070
sVsoftick.android.photoframe
p3071
S'Media &amp; Video'
p3072
sVcom.lge.pa
p3073
S'Unknown'
p3074
sVcom.sec.android.allshare.framework
p3075
S'Unknown'
p3076
sVcom.arcsoft.quickview
p3077
S'Unknown'
p3078
sVde.stohelit.audiobookplayer
p3079
S'Music &amp; Audio'
p3080
sVorg.torproject.android
p3081
S'Communication'
p3082
sVcom.q9input.inputmethod
p3083
S'Tools'
p3084
sVcom.dianxinos.dxbs
p3085
S'Productivity'
p3086
sVcom.qualcomm.privinit
p3087
S'Unknown'
p3088
sVnet.hubalek.android.reborn.beta
p3089
S'Tools'
p3090
sVcom.qualcomm.svi
p3091
S'Unknown'
p3092
sVhko.MyObservatory_v1_0
p3093
S'Weather'
p3094
sVcom.chimpler.stockdroid
p3095
S'Finance'
p3096
sVde.schildbach.wallet
p3097
S'Finance'
p3098
sVcom.alienbrainapps.totalrambooster
p3099
S'Tools'
p3100
sVcom.icenta.sudoku.ui
p3101
S'Puzzle'
p3102
sVcom.musixmatch.android.lyrify
p3103
S'Music &amp; Audio'
p3104
sVcom.BisonBlast.Shipstorm
p3105
S'Arcade'
p3106
sVcom.cma.blackwhitegame
p3107
S'Unknown'
p3108
sVcom.skyfire.browser.toolbar.att
p3109
S'Unknown'
p3110
sVcom.feeperfect.feemwifi.free
p3111
S'Tools'
p3112
sVcom.nullsoft.winamp
p3113
S'Unknown'
p3114
sVcom.nymgo.android
p3115
S'Communication'
p3116
sVnextapp.systempanel.r1
p3117
S'Tools'
p3118
sVcom.flyersoft.moonreader
p3119
S'Books &amp; Reference'
p3120
sVcom.slideme.sam.manager
p3121
S'Unknown'
p3122
sVcom.cool.koreantvchannels
p3123
S'Unknown'
p3124
sVcom.tactio.tactiohealth
p3125
S'Medical'
p3126
sVcom.ivy.doze
p3127
S'Music &amp; Audio'
p3128
sVeu.thedarken.sdm
p3129
S'Tools'
p3130
sVipcamsoft.com.filingmagic.pro
p3131
S'Business'
p3132
sVcom.asksven.betterbatterystats
p3133
S'Tools'
p3134
sVplant.dictionary
p3135
S'Lifestyle'
p3136
sVcom.hmobile.quotesbuddha
p3137
S'Books &amp; Reference'
p3138
sVcom.imoblife.checkadd_plug_in
p3139
S'Productivity'
p3140
sVcom.devexpert.weather
p3141
S'Weather'
p3142
sVcom.samsung.syncservice
p3143
S'Unknown'
p3144
sVcom.sec.android.widgetapp.easyfavoritescontactswidget
p3145
S'Unknown'
p3146
sVUxpp.UC
p3147
S'Communication'
p3148
sVcom.quoord.tapatalkHD
p3149
S'Unknown'
p3150
sVcom.sega.sonicdash
p3151
S'Arcade'
p3152
sVcom.samsung.android.scloud.backup
p3153
S'Unknown'
p3154
sVcom.azefsw.purchasedapps
p3155
S'Tools'
p3156
sVcom.ps.vaultprotector
p3157
S'Unknown'
p3158
sVorg.adblockplus.android
p3159
S'Unknown'
p3160
sVcom.sec.android.service.cm
p3161
S'Unknown'
p3162
sVcom.qqfriends.com.music
p3163
S'Unknown'
p3164
sVdaveyfong.hkstock
p3165
S'Finance'
p3166
sVcom.incarsoft.languagewizard
p3167
S'Unknown'
p3168
sVcom.king.petrescuesaga
p3169
S'Casual'
p3170
sVcom.sec.android.app.FlashBarService
p3171
S'Unknown'
p3172
sVcom.lge.livewallpaper.polarbear
p3173
S'Unknown'
p3174
sVde.timluegger.golem
p3175
S'Unknown'
p3176
sVcom.mediatek.atci.service
p3177
S'Unknown'
p3178
sVcom.android.qualcomm
p3179
S'Unknown'
p3180
sVcom.giffgaffmobile.controller
p3181
S'Communication'
p3182
sVcom.intangibleobject.securesettings.plugin
p3183
S'Tools'
p3184
sVcom.aware
p3185
S'Unknown'
p3186
sVcom.sony.smallapp.launcher
p3187
S'Unknown'
p3188
sVnz.co.aztecinfo
p3189
S'Finance'
p3190
sVde.zorillasoft.musicfolderplayer.donate
p3191
S'Music &amp; Audio'
p3192
sVcom.quran.labs.androidquran
p3193
S'Books &amp; Reference'
p3194
sVcom.sec.tcpdumpservice
p3195
S'Unknown'
p3196
sVfi.polar.polarflow
p3197
S'Health &amp; Fitness'
p3198
sVcom.painless.pc
p3199
S'Tools'
p3200
sVcom.mypermissions.mypermissions
p3201
S'Tools'
p3202
sVcom.planeto.quizbattle2.bonnier
p3203
S'Trivia'
p3204
sVcom.kaf.contentsbox
p3205
S'Unknown'
p3206
sVcom.sonyericsson.android.camera
p3207
S'Unknown'
p3208
sVcom.motorola.android.omadm.sprint.client
p3209
S'Unknown'
p3210
sVcom.htc.sdm
p3211
S'Unknown'
p3212
sVcom.estrongs.android.taskmanager
p3213
S'Business'
p3214
sVeu.sweetlygeek.sleepytime
p3215
S'Health &amp; Fitness'
p3216
sVnet.caffeinelab.pbb
p3217
S'Unknown'
p3218
sVcom.mobile.ign
p3219
S'Entertainment'
p3220
sVcom.flyersoft.moonreaderp
p3221
S'Books &amp; Reference'
p3222
sVcom.jerusalemonline.client
p3223
S'News &amp; Magazines'
p3224
sVcom.ninegag.android.app
p3225
S'Entertainment'
p3226
sVcom.fsecure.ms.dc
p3227
S'Tools'
p3228
sVcom.google.android.apps.magazines
p3229
S'News &amp; Magazines'
p3230
sVcom.sec.android.widgetapp.q1_smemo
p3231
S'Unknown'
p3232
sVcom.brentpanther.bitcoinwidget
p3233
S'Finance'
p3234
sVcom.android.noisefield
p3235
S'Unknown'
p3236
sVair.com.fanatee.letroca
p3237
S'Word'
p3238
sVcom.motorola.genie
p3239
S'Tools'
p3240
sVcom.coolots.chaton
p3241
S'Unknown'
p3242
sVcom.tinyroar.xposedlgg2
p3243
S'Personalization'
p3244
sVcom.mediatek.calendarimporter
p3245
S'Unknown'
p3246
sVcom.comodo.pimsecure
p3247
S'Tools'
p3248
sVde.j4velin.notificationToggle
p3249
S'Tools'
p3250
sVsi.matejpikovnik.menstrual
p3251
S'Medical'
p3252
sVcom.mobilesrepublic.appy
p3253
S'News &amp; Magazines'
p3254
sVcom.atooma
p3255
S'Tools'
p3256
sVcom.sprint.w.installer
p3257
S'Unknown'
p3258
sVcom.usatoday.android.news
p3259
S'News &amp; Magazines'
p3260
sVcom.easygame.marblelegend
p3261
S'Puzzle'
p3262
sVorg.lds.ldstools
p3263
S'Books &amp; Reference'
p3264
sVcom.google.android.gsf.login
p3265
S'Unknown'
p3266
sVcom.ichi2.anki
p3267
S'Education'
p3268
sVcom.kikudjiro.android.shultztables
p3269
S'Education'
p3270
sVcom.google.android.apps.inputmethod.cantonese
p3271
S'Tools'
p3272
sVcom.motionone.afterfocus
p3273
S'Photography'
p3274
sVcom.twitter.android
p3275
S'Social'
p3276
sVcom.saavn.android
p3277
S'Music &amp; Audio'
p3278
sVcom.svm.snips
p3279
S'Tools'
p3280
sVcom.vitocassisi.lux.plugin.nexus4
p3281
S'Tools'
p3282
sVcom.mobile.securacy
p3283
S'Communication'
p3284
sVcom.google.android.stardroid
p3285
S'Books &amp; Reference'
p3286
sVcom.mediatek.mdlogger
p3287
S'Unknown'
p3288
sVcom.ninetyfour.degrees.app
p3289
S'Trivia'
p3290
sVde.telekom.hotspotlogin.de
p3291
S'Tools'
p3292
sVcom.mcmeel.WifiScheduler
p3293
S'Productivity'
p3294
sVcom.sec.providers.settingsearch
p3295
S'Unknown'
p3296
sVcom.htc.AutoMotive
p3297
S'Unknown'
p3298
sVcom.mindmeapp.alarmpadpro
p3299
S'Lifestyle'
p3300
sVmenion.android.locus
p3301
S'Travel &amp; Local'
p3302
sVcom.vlingo.client.samsung
p3303
S'Unknown'
p3304
sVcom.paranoid.lightbulb
p3305
S'Unknown'
p3306
sVcom.emusic.android
p3307
S'Music &amp; Audio'
p3308
sVcom.disney.wheresmywater2_goo
p3309
S'Puzzle'
p3310
sVcom.sonyericsson.updatecenter
p3311
S'Unknown'
p3312
sVcom.sonymobile.runtimeskinning.core
p3313
S'Unknown'
p3314
sVcom.skgames.trafficracer
p3315
S'Racing'
p3316
sVcom.opera.browser
p3317
S'Communication'
p3318
sVstericson.busybox
p3319
S'Tools'
p3320
sVcom.cooliris.media
p3321
S'Unknown'
p3322
sVbiz.bookdesign.librivox
p3323
S'Books &amp; Reference'
p3324
sVit.gmariotti.android.apps.dashclock.extensions.netinfo
p3325
S'Personalization'
p3326
sVpt.sapo.android.cloudpt
p3327
S'Productivity'
p3328
sVcom.vipercn.viper4android_v2
p3329
S'Unknown'
p3330
sVcom.hp.android.printservice
p3331
S'Productivity'
p3332
sVnextapp.fx
p3333
S'Business'
p3334
sVcom.famigo.sandbox
p3335
S'Education'
p3336
sVcom.citc.weather
p3337
S'Weather'
p3338
sVstore.antivirus
p3339
S'Unknown'
p3340
sVcom.arlosoft.macrodroid
p3341
S'Tools'
p3342
sVcom.upsidetechnologies.puttreader
p3343
S'Sports'
p3344
sVcom.sec.android.quickmemo
p3345
S'Unknown'
p3346
sVcom.android.MtpApplication
p3347
S'Unknown'
p3348
sVcom.endlesstv
p3349
S'Entertainment'
p3350
sVcom.zumobi.msnbc
p3351
S'News &amp; Magazines'
p3352
sVcom.diotek.diodict3.phone.lg.lgedict
p3353
S'Unknown'
p3354
sVcom.lonelyfew.blendoku
p3355
S'Puzzle'
p3356
sVcom.sec.android.widgetapp.ap.edaily.stockclock
p3357
S'Unknown'
p3358
sVcom.osp.app.signin
p3359
S'Unknown'
p3360
sVcom.bitfire.development.calendarsnooze
p3361
S'Productivity'
p3362
sVcom.htc.vvm.att
p3363
S'Unknown'
p3364
sVcom.panasonic.pavc.viera.vieraremote2
p3365
S'Entertainment'
p3366
sVcom.naturalmotion.clumsyninja
p3367
S'Family'
p3368
sVinfo.guardianproject.otr.app.im
p3369
S'Communication'
p3370
sVcom.wssnps
p3371
S'Unknown'
p3372
sVorg.hcilab.projects.notification
p3373
S'Communication'
p3374
sVgbis.gbandroid
p3375
S'Travel &amp; Local'
p3376
sVru.mail.games.android.JungleHeat
p3377
S'Strategy'
p3378
sVcom.code42.crashplan.android
p3379
S'Tools'
p3380
sVcom.softcom.launcher
p3381
S'Unknown'
p3382
sVcom.authy.authy
p3383
S'Tools'
p3384
sVcom.htc.dnatransfer
p3385
S'Unknown'
p3386
sVcom.projectggk.snapsave
p3387
S'Unknown'
p3388
sVcom.sonyericsson.r2r.client
p3389
S'Unknown'
p3390
sVcom.lge.ime
p3391
S'Unknown'
p3392
sVcom.marinetraffic
p3393
S'Unknown'
p3394
sVcom.smlds
p3395
S'Unknown'
p3396
sVcom.dccu.mobilebanking
p3397
S'Finance'
p3398
sVcom.tct.onetouchshare
p3399
S'Unknown'
p3400
sVcom.moblynx.clockjb
p3401
S'Personalization'
p3402
sVcom.ifttt.ifttt
p3403
S'Productivity'
p3404
sVcom.n7mobile.nplayer
p3405
S'Music &amp; Audio'
p3406
sVcom.lge.task
p3407
S'Unknown'
p3408
sVcom.lge.lmk
p3409
S'Unknown'
p3410
sVcom.vznavigator.SCHI605
p3411
S'Travel &amp; Local'
p3412
sVcom.sp.smartgallery.free
p3413
S'Tools'
p3414
sVcom.iphone5s.ios7.lockscreen
p3415
S'Unknown'
p3416
sVcom.dsht.kerneltweaker
p3417
S'Tools'
p3418
sVcom.kmplayer
p3419
S'Media &amp; Video'
p3420
sVcom.google.android.apps.blogger
p3421
S'Social'
p3422
sVcom.touchtype.swiftkey.pantech.magnus
p3423
S'Unknown'
p3424
sVorg.withouthat.acalendar
p3425
S'Productivity'
p3426
sVcom.motricity.verizon.ssodownloadable
p3427
S'Tools'
p3428
sVcom.dsemu.drastic
p3429
S'Action'
p3430
sVcom.missedcallmessenger.pro
p3431
S'Tools'
p3432
sVcom.asim.prayertimehd
p3433
S'Travel &amp; Local'
p3434
sVcom.ryerson.go
p3435
S'Transportation'
p3436
sVhu.viczian.notifications.pro
p3437
S'Tools'
p3438
sVcom.cyanogenmod.updater
p3439
S'Unknown'
p3440
sVcom.keramidas.TitaniumBackup
p3441
S'Tools'
p3442
sVlrstudios.games.ego.lite
p3443
S'Puzzle'
p3444
sVcom.socialnmobile.hd.flashlight
p3445
S'Tools'
p3446
sVccc71.bmw.pro
p3447
S'Tools'
p3448
sVcom.adobe.reader
p3449
S'Productivity'
p3450
sVcom.jiubang.goscreenlock.plugin.lockscreen
p3451
S'Productivity'
p3452
sVch.berard.musicpump
p3453
S'Music &amp; Audio'
p3454
sVcom.android.htccontacts
p3455
S'Unknown'
p3456
sVcom.doodlejoy.studio.kidsdoojoy
p3457
S'Family'
p3458
sVhome.solo.launcher.free
p3459
S'Personalization'
p3460
sVcom.aws.android
p3461
S'Weather'
p3462
sVcom.devhd.feedly
p3463
S'News &amp; Magazines'
p3464
sVcom.app.vodio
p3465
S'News &amp; Magazines'
p3466
sVcom.sec.android.widgetapp.weathernewsclock
p3467
S'Unknown'
p3468
sVcom.jb.gosms.widget
p3469
S'Communication'
p3470
sVcom.sec.android.widgetapp.weatherclock
p3471
S'Unknown'
p3472
sVcom.studiokuma.callfilter
p3473
S'Communication'
p3474
sVcom.pantech.launcher2
p3475
S'Unknown'
p3476
sVcom.app.stores
p3477
S'Unknown'
p3478
sVsmart.vs.london.man.suit
p3479
S'Photography'
p3480
sVcom.android.videoeditor
p3481
S'Unknown'
p3482
sVfi.rojekti.clipper
p3483
S'Productivity'
p3484
sVde.underflow.calc
p3485
S'Tools'
p3486
sVcom.htc.htccupd
p3487
S'Unknown'
p3488
sVru.image.hd.free.review500px
p3489
S'Unknown'
p3490
sVcom.htc.cs
p3491
S'Unknown'
p3492
sVcom.gotv.nflgamecenter.us.lite
p3493
S'Sports'
p3494
sVcom.game.hugophieuluu
p3495
S'Unknown'
p3496
sVcom.vocabulary.app
p3497
S'Education'
p3498
sVorg.detikcom.rss
p3499
S'News &amp; Magazines'
p3500
sVcom.sec.android.app.tmserver
p3501
S'Unknown'
p3502
sVin.vineetsirohi.customwidget
p3503
S'Personalization'
p3504
sVcom.crypticapps.nettech
p3505
S'Tools'
p3506
sVcom.jrdcom.tethering
p3507
S'Unknown'
p3508
sVcom.google.android.apps.googlevoice
p3509
S'Communication'
p3510
sVorg.connectbot
p3511
S'Communication'
p3512
sVcom.motorola.notificationtutorial
p3513
S'Unknown'
p3514
sVjohndoeapps.site.com.google.sites.android.appinstallhistory
p3515
S'Tools'
p3516
sVcom.android.keychain
p3517
S'Unknown'
p3518
sVcom.onelouder.baconreader
p3519
S'News &amp; Magazines'
p3520
sVru.infteh.organizer.trial
p3521
S'Productivity'
p3522
sVcom.igg.castleclash
p3523
S'Strategy'
p3524
sVde.antonwolf.agendawidget
p3525
S'Tools'
p3526
sVde.danoeh.antennapod
p3527
S'Media &amp; Video'
p3528
sVcom.mobilefootie.fotmobpro
p3529
S'Sports'
p3530
sVcom.cyanogenmod.CMWallpapers
p3531
S'Unknown'
p3532
sVcom.google.android.apps.docs
p3533
S'Productivity'
p3534
sVcom.dv.adm
p3535
S'Tools'
p3536
sVcom.softpauer.f1timingapp2014.basic
p3537
S'Sports'
p3538
sVcom.quickmobile.servicenow.knowledge2014
p3539
S'Unknown'
p3540
sVcom.sgiggle.production
p3541
S'Social'
p3542
sVcom.sec.dsm.system
p3543
S'Unknown'
p3544
sVme.grantland.dashclock_battery
p3545
S'Personalization'
p3546
sVdevian.tubemate.home
p3547
S'Unknown'
p3548
sVcom.sec.att.devicehealthshortcut
p3549
S'Unknown'
p3550
sVcom.erickbrown.superselfesteemapp
p3551
S'Lifestyle'
p3552
sVcom.androidlost
p3553
S'Tools'
p3554
sVnet.openvpn.openvpn
p3555
S'Communication'
p3556
sVsoft.kinoko.SilentCamera
p3557
S'Photography'
p3558
sVcom.htc.album
p3559
S'Media &amp; Video'
p3560
sVcom.infraware.polarisviewer4
p3561
S'Unknown'
p3562
sVcom.att.android.digitallocker
p3563
S'Productivity'
p3564
sVcom.jb.gosms
p3565
S'Communication'
p3566
sVcom.microsoft.skydrive
p3567
S'Productivity'
p3568
sVcom.jrtstudio.music
p3569
S'Music &amp; Audio'
p3570
sVcom.lge.Notebook
p3571
S'Unknown'
p3572
sVcom.mediocre.grannysmith
p3573
S'Arcade'
p3574
sVcom.sec.android.magazinewidget
p3575
S'Unknown'
p3576
sVcom.sec.android.fotaclient
p3577
S'Unknown'
p3578
sVcom.locationlabs.v3client
p3579
S'Unknown'
p3580
sVde.vrallev.shutdown.android
p3581
S'Tools'
p3582
sVcom.mediatek.smsreg
p3583
S'Unknown'
p3584
sVcom.rk.batteryWidget
p3585
S'Unknown'
p3586
sVcom.ezjoynetwork.gardenmania2
p3587
S'Casual'
p3588
sVcom.sec.android.app.keyguard
p3589
S'Unknown'
p3590
sVcom.samsung.syncmlservice
p3591
S'Unknown'
p3592
sVcom.wetpalm.ProfileScheduler
p3593
S'Tools'
p3594
sVorg.videomap.droidmoteclient
p3595
S'Tools'
p3596
sVcom.android.chrome
p3597
S'Communication'
p3598
sVde.telekom.as.roamingmanager.nl
p3599
S'Travel &amp; Local'
p3600
sVcom.android.documentsui
p3601
S'Unknown'
p3602
sVcom.gsamlabs.bbm
p3603
S'Tools'
p3604
sVcom.citc.wallbase
p3605
S'Unknown'
p3606
sVcom.idm.video.download.manager.tool.for.free.nivax
p3607
S'Unknown'
p3608
sVd.android.wallpaper.simpleblack
p3609
S'Personalization'
p3610
sVcom.sonyericsson.mtp
p3611
S'Unknown'
p3612
sVde.j4velin.calendarWidget
p3613
S'Productivity'
p3614
sVmobi.infolife.ezweather
p3615
S'Weather'
p3616
sVcom.bskyb.skygo
p3617
S'Entertainment'
p3618
sVcom.google.android.apps.plus
p3619
S'Social'
p3620
sVcom.jrdcom.setupwizard
p3621
S'Unknown'
p3622
sVcom.evernote.widget
p3623
S'Productivity'
p3624
sVcom.htc.idlescreen.base
p3625
S'Unknown'
p3626
sVcom.valvesoftware.android.steam.community
p3627
S'Entertainment'
p3628
sVcom.schurich.android.tools.appopsstarter
p3629
S'Tools'
p3630
sVcom.june.think
p3631
S'Trivia'
p3632
sVcom.android.shell
p3633
S'Unknown'
p3634
sVind.fem.black.xposed.mods
p3635
S'Personalization'
p3636
sVcom.almalence.hdr_plus
p3637
S'Photography'
p3638
sVcom.fsecure.mute
p3639
S'Unknown'
p3640
sVch.sbb.mobile.android.b2c
p3641
S'Transportation'
p3642
sVcom.skt.skaf.OA00199800
p3643
S'Unknown'
p3644
sVnet.osmand
p3645
S'Travel &amp; Local'
p3646
sVbr.com.rodrigokolb.realdrum
p3647
S'Music'
p3648
sVcom.lge.SprintHiddenMenu
p3649
S'Unknown'
p3650
sVcom.yahoo.mobile.client.android.yahoo
p3651
S'News &amp; Magazines'
p3652
sVcom.distilledmedia.adverts
p3653
S'Lifestyle'
p3654
sVcom.mediatek.voicecommand
p3655
S'Unknown'
p3656
sVcom.microsoft.smartglass
p3657
S'Entertainment'
p3658
sVmobi.infolife.taskmanager
p3659
S'Productivity'
p3660
sVcom.sonyericsson.video
p3661
S'Unknown'
p3662
sVde.sec.mobile
p3663
S'Shopping'
p3664
sVcom.mysms.android.sms
p3665
S'Communication'
p3666
sVcom.sec.android.widgetapp.programmonitorwidget
p3667
S'Unknown'
p3668
sVnet.trippedout.android.facets
p3669
S'Personalization'
p3670
sVcom.kfactormedia.mycalendarmobile
p3671
S'Productivity'
p3672
sVuk.co.economist
p3673
S'News &amp; Magazines'
p3674
sVcom.nwfb
p3675
S'Travel &amp; Local'
p3676
sVcom.antispycell
p3677
S'Tools'
p3678
sVcom.samsung.android.providers.context
p3679
S'Unknown'
p3680
sVcom.motorola.cardock
p3681
S'Unknown'
p3682
sVcom.sec.android.app.launcher
p3683
S'Unknown'
p3684
sVcom.arkea.android.application.cmso2
p3685
S'Finance'
p3686
sVcom.flipkart.android
p3687
S'Shopping'
p3688
sVcom.lge.sync
p3689
S'Unknown'
p3690
sVcom.bitdefender.antivirus
p3691
S'Tools'
p3692
sVch.teamtasks.tasks.paid
p3693
S'Productivity'
p3694
sVcom.sec.android.widgetapp.alarmclock
p3695
S'Unknown'
p3696
sVccc71.st.cpu
p3697
S'Tools'
p3698
sVcom.touchnote.android
p3699
S'Photography'
p3700
sVnet.xdevelop.rm
p3701
S'Business'
p3702
sVcom.hy.system.fontserver
p3703
S'Unknown'
p3704
sVcom.lge.qremote
p3705
S'Unknown'
p3706
sVair.com.ukeypad.grooveshark
p3707
S'Unknown'
p3708
sVcom.ticktick.task
p3709
S'Productivity'
p3710
sVcom.pocketools.currency
p3711
S'Finance'
p3712
sVcom.marvel.comics
p3713
S'Comics'
p3714
sVcom.waze
p3715
S'Travel &amp; Local'
p3716
sVorg.malwarebytes.antimalware
p3717
S'Tools'
p3718
sVimoblife.toolbox.full
p3719
S'Productivity'
p3720
sVcom.sparrow.fairytales
p3721
S'Educational'
p3722
sVcom.rmfdev.callfaker
p3723
S'Entertainment'
p3724
sVorg.microemu.android.se.appello.lp.WisepilotSE
p3725
S'Travel &amp; Local'
p3726
sVcom.frogmind.badland.humble
p3727
S'Unknown'
p3728
sVcom.hellotext.hello
p3729
S'Communication'
p3730
sVcom.samsung.android.sdk.professionalaudio.utility.jammonitor
p3731
S'Unknown'
p3732
sVme.pou.app
p3733
S'Casual'
p3734
sVcom.sec.android.Kies
p3735
S'Unknown'
p3736
sVcom.lge.homeselector
p3737
S'Unknown'
p3738
sVcom.truecaller
p3739
S'Communication'
p3740
sVcom.google.android.apps.finance
p3741
S'Finance'
p3742
sVcom.sec.android.easyMover
p3743
S'Tools'
p3744
sVcom.webroot.security.sme
p3745
S'Business'
p3746
sVcom.namcobandaigames.galagasefree
p3747
S'Action'
p3748
sVcom.innopath.activecare.dev.oem
p3749
S'Unknown'
p3750
sVcom.contapps.android
p3751
S'Communication'
p3752
sVcom.redbull.racers
p3753
S'Racing'
p3754
sVhyperfine.BigBen
p3755
S'Personalization'
p3756
sVcom.archos.mediacenter.video
p3757
S'Media &amp; Video'
p3758
sVcom.android.bip
p3759
S'Unknown'
p3760
sVcom.mgyun.shua.su
p3761
S'Unknown'
p3762
sVcom.sonymobile.sonyselectdata
p3763
S'Unknown'
p3764
sVcom.usbank.mobilebanking
p3765
S'Finance'
p3766
sVcom.sec.android.app.myfiles
p3767
S'Unknown'
p3768
sVcom.doublep.wakey
p3769
S'Tools'
p3770
sVcom.polilabs.thefingerchallenge
p3771
S'Casual'
p3772
sVcom.htc.htcMessageUploader
p3773
S'Unknown'
p3774
sVcom.mshift.android.patelco
p3775
S'Finance'
p3776
sVcom.livestream.livestream
p3777
S'Media &amp; Video'
p3778
sVorg.omnirom.device
p3779
S'Unknown'
p3780
sVcom.mobisystems.mobiscanner
p3781
S'Business'
p3782
sVcom.badoo.mobile
p3783
S'Social'
p3784
sVcom.clov4r.android.nil
p3785
S'Unknown'
p3786
sVcom.igg.clash_of_lords
p3787
S'Strategy'
p3788
sVde.hansserver.xvolume
p3789
S'Unknown'
p3790
sVcom.lge.appcleanup
p3791
S'Unknown'
p3792
sVcom.sec.android.omc
p3793
S'Unknown'
p3794
sVcom.lge.sizechangable.calendar
p3795
S'Unknown'
p3796
sVcom.socialnmobile.colordict
p3797
S'Books &amp; Reference'
p3798
sVcom.tagstand.driveagent
p3799
S'Unknown'
p3800
sVcom.binarybulge.android.apps.keyboard.full
p3801
S'Tools'
p3802
sVde.fax.freefax
p3803
S'Communication'
p3804
sVcom.xiam.snapdragon.app
p3805
S'Tools'
p3806
sVred.android
p3807
S'Board'
p3808
sVcom.otaupdater
p3809
S'Tools'
p3810
sVnet.eagin.software.android.dejaloYa
p3811
S'Health &amp; Fitness'
p3812
sVcom.apksoftware.compass
p3813
S'Unknown'
p3814
sVit.codegen.mobile.dialogtraveller
p3815
S'Travel &amp; Local'
p3816
sVcom.loudtalks
p3817
S'Social'
p3818
sVcom.sec.android.service.sm
p3819
S'Unknown'
p3820
sVcom.pantech.simple.weather
p3821
S'Unknown'
p3822
sVcom.qualcomm.qcrilmsgtunnel
p3823
S'Unknown'
p3824
sVcom.sonyericsson.extras.liveware.extension.call
p3825
S'Communication'
p3826
sVcom.fsecure.ms.safe
p3827
S'Tools'
p3828
sVcom.qo.android.sp.oem
p3829
S'Unknown'
p3830
sVcom.spydiko.rotationmanager
p3831
S'Unknown'
p3832
sVcom.kennyforge.android.Stockulator
p3833
S'Finance'
p3834
sVcom.fitnesskeeper.runkeeper.pro
p3835
S'Health &amp; Fitness'
p3836
sVcom.tweddle.toyota.entune
p3837
S'Lifestyle'
p3838
sVcom.flipkart.slashn
p3839
S'Productivity'
p3840
sVcom.mta.countdown
p3841
S'Productivity'
p3842
sVcom.google.android.apps.ads.publisher
p3843
S'Productivity'
p3844
sVpl.com.digita.BikeComputer
p3845
S'Health &amp; Fitness'
p3846
sVcom.icestone.Emoji
p3847
S'Tools'
p3848
sVcom.xenopscreations.hagreve
p3849
S'Social'
p3850
sVbbc.mobile.news.uk
p3851
S'News &amp; Magazines'
p3852
sVcom.blor.quickclickgold
p3853
S'Tools'
p3854
sVcom.ertanto.kompas.official
p3855
S'News &amp; Magazines'
p3856
sVcom.jogatina.canasta
p3857
S'Card'
p3858
sVcom.dbapp.android.mediahouse
p3859
S'Media &amp; Video'
p3860
sVcom.andrewshu.android.redditdonation
p3861
S'News &amp; Magazines'
p3862
sVcom.humblebundle.library
p3863
S'Unknown'
p3864
sVcom.alphonso.pulse
p3865
S'News &amp; Magazines'
p3866
sVcom.sonymobile.androidapp.cameraaddon.infoeye
p3867
S'Unknown'
p3868
sVcom.zoodles.kidmode
p3869
S'Education'
p3870
sVcom.sonyericsson.eventstream
p3871
S'Unknown'
p3872
sVcom.pantech.app.music
p3873
S'Unknown'
p3874
sVcom.outfit7.trifs.grooveracer
p3875
S'Racing'
p3876
sVcom.sonyericsson.wallpaperpicker
p3877
S'Unknown'
p3878
sVcom.dataviz.docstogo
p3879
S'Business'
p3880
sVcom.media1908.lightningbug
p3881
S'Health &amp; Fitness'
p3882
sVcom.zenprise
p3883
S'Tools'
p3884
sVcom.jimmychen.app.eyesprotector
p3885
S'Health &amp; Fitness'
p3886
sVcom.sec.android.sCloudSync
p3887
S'Unknown'
p3888
sVme.onemobile.android
p3889
S'Unknown'
p3890
sVlarry.zou.colorfullife
p3891
S'Social'
p3892
sVcom.heavyfall.constructioncity
p3893
S'Puzzle'
p3894
sVcom.acm.dl
p3895
S'Books &amp; Reference'
p3896
sVcom.sonyericsson.photoeditor
p3897
S'Unknown'
p3898
sVcom.rn.sayit
p3899
S'Unknown'
p3900
sVch.berard.xbmcremotebeta
p3901
S'Media &amp; Video'
p3902
sVcom.kt.otv
p3903
S'Media &amp; Video'
p3904
sVcom.jrummy.root.browserfree
p3905
S'Productivity'
p3906
sVorg.me.tvligenu.pro
p3907
S'Entertainment'
p3908
sVnet.simplyadvanced.ltediscovery
p3909
S'Tools'
p3910
sVcom.rastergrid.game.pocketsoccer
p3911
S'Arcade'
p3912
sVcom.diotek.diodict3.lgedict.adddict.engchn
p3913
S'Books &amp; Reference'
p3914
sVcom.telenav.app.android.cingular
p3915
S'Travel &amp; Local'
p3916
sVcom.ninjakiwi.bloonstd5
p3917
S'Strategy'
p3918
sVorg.navitproject.navit
p3919
S'Travel &amp; Local'
p3920
sVcom.m0narx.tweaks
p3921
S'Unknown'
p3922
sVcom.cisco.webex.meetings
p3923
S'Business'
p3924
sVcom.hsenid.flipbeats
p3925
S'Music &amp; Audio'
p3926
sVcom.sec.android.app.sbrowser
p3927
S'Unknown'
p3928
sVcom.example.helloadms
p3929
S'Unknown'
p3930
sVcom.sec.android.inputmethod.axt9
p3931
S'Unknown'
p3932
sVcom.opera.mini.android
p3933
S'Communication'
p3934
sVcom.android.wallpaper.holospiral
p3935
S'Unknown'
p3936
sVcom.quoord.tapatalkautoguidefree.activity
p3937
S'Social'
p3938
sVcom.duudood.dota2
p3939
S'Unknown'
p3940
sVcom.sonymobile.helpapp7
p3941
S'Unknown'
p3942
sVcom.directv.dvrscheduler
p3943
S'Entertainment'
p3944
sVcom.tmobile.vvm.application
p3945
S'Tools'
p3946
sVcom.staircase3.opensignal
p3947
S'Tools'
p3948
sVcom.groupon
p3949
S'Shopping'
p3950
sVcom.sec.android.widgetapp.diotek.smemo
p3951
S'Productivity'
p3952
sVcom.androidlord.cacheclear
p3953
S'Productivity'
p3954
sVcom.dancingdroid.dailysuccess
p3955
S'Productivity'
p3956
sVcom.merriamwebster
p3957
S'Books &amp; Reference'
p3958
sVbazinga.historyclean
p3959
S'Tools'
p3960
sVnet.zedge.android
p3961
S'Personalization'
p3962
sVcom.gabrielecirulli.app2048
p3963
S'Puzzle'
p3964
sVcom.kitkatandroid.contacts
p3965
S'Unknown'
p3966
sVcom.sec.android.mimage.photoretouching
p3967
S'Photography'
p3968
sVcom.rebeltwins.aliensdrivemecrazy
p3969
S'Action'
p3970
sVla.droid.qr
p3971
S'Productivity'
p3972
sVdk.silverbullet.android.danishweather
p3973
S'Unknown'
p3974
sVcom.samsung.arbook
p3975
S'Unknown'
p3976
sVcom.htc.googlereader
p3977
S'Unknown'
p3978
sVcom.th.android.widget.gTabsimiClock
p3979
S'Tools'
p3980
sVtw.fatminmin.xposed.minminguard
p3981
S'Unknown'
p3982
sVcom.hongshee.mobile.anbook.shujing
p3983
S'Books &amp; Reference'
p3984
sVcom.sonymobile.anondata
p3985
S'Unknown'
p3986
sVcom.openrice.android
p3987
S'Lifestyle'
p3988
sVcom.qubyte.htr
p3989
S'Simulation'
p3990
sVcom.kattanweb.android.dfaa
p3991
S'Tools'
p3992
sVcom.canonical.ubuntu.installer
p3993
S'Unknown'
p3994
sVcom.lg.apps.lglaundry
p3995
S'Tools'
p3996
sVcom.android.protips
p3997
S'Unknown'
p3998
sVcom.fsecure.tools.ms.changelang
p3999
S'Unknown'
p4000
sVro.weednet.contactssync
p4001
S'Social'
p4002
sVcom.havos.codewordunlimited
p4003
S'Word'
p4004
sVcom.google.android.apps.paidtasks
p4005
S'Tools'
p4006
sVcom.tmobile.thememanager
p4007
S'Unknown'
p4008
sVcom.medscape.android
p4009
S'Medical'
p4010
sVcom.cequint.ecid
p4011
S'Unknown'
p4012
sVmnn.Android
p4013
S'News &amp; Magazines'
p4014
sVcom.lge.app.richnote
p4015
S'Unknown'
p4016
sVcom.fm.etunes.phone
p4017
S'Music &amp; Audio'
p4018
sVcom.radiantbits.atrium
p4019
S'Unknown'
p4020
sVcom.huawei.android.totemweather
p4021
S'Unknown'
p4022
sVcom.payneservices.LifeReminders
p4023
S'Productivity'
p4024
sVcom.appstar.callrecorderpro
p4025
S'Tools'
p4026
sVcom.sds.DMMonitor
p4027
S'Unknown'
p4028
sVcom.coinbase.android
p4029
S'Finance'
p4030
sVcom.madewithstudio.studio
p4031
S'Photography'
p4032
sVcom.scoresandodds
p4033
S'Sports'
p4034
sVcom.aware.plugin.pedometer
p4035
S'Unknown'
p4036
sVcom.sonymobile.camerawidget
p4037
S'Unknown'
p4038
sVcom.latedroid.seepu
p4039
S'Tools'
p4040
sVcom.vimtec.ringeditor
p4041
S'Unknown'
p4042
sVcom.samsung.SMT
p4043
S'Unknown'
p4044
sVcom.sakal.callist
p4045
S'Communication'
p4046
sVcom.crom.about
p4047
S'Unknown'
p4048
sVcom.lge.sizechangable.memo
p4049
S'Unknown'
p4050
sVcom.iavian.dreport
p4051
S'News &amp; Magazines'
p4052
sVcom.fxsound.android.dfxplayer.trial
p4053
S'Music &amp; Audio'
p4054
sVuk.amazon.mShop.android
p4055
S'Unknown'
p4056
sVcom.android.providers.syncml
p4057
S'Unknown'
p4058
sVcom.mymappa.maps.mauritius
p4059
S'Travel &amp; Local'
p4060
sVcom.life360.android.safetymapd
p4061
S'Lifestyle'
p4062
sVusa.jersey.tvlistings
p4063
S'Entertainment'
p4064
sVcom.netbiscuits.bild.android
p4065
S'News &amp; Magazines'
p4066
sVcom.digitalsky.dragonbane.de
p4067
S'Role Playing'
p4068
sVcom.sec.print.mobileprint
p4069
S'Productivity'
p4070
sVpt.cgd.caixadirecta
p4071
S'Finance'
p4072
sVcom.bitcasa.android
p4073
S'Unknown'
p4074
sVcom.madhead.tos.en
p4075
S'Puzzle'
p4076
sVamebis.termania.net
p4077
S'Books &amp; Reference'
p4078
sVcom.jb.gokeyboard.theme.elegantlover.getjar
p4079
S'Personalization'
p4080
sVcom.tripadvisor.android.apps.cityguide.london
p4081
S'Travel &amp; Local'
p4082
sVcom.touchtype.swiftkey
p4083
S'Productivity'
p4084
sVcom.sam.android.app.watchify
p4085
S'Communication'
p4086
sVcom.rageconsulting.android.lightflowlite
p4087
S'Tools'
p4088
sVcom.skype.raider
p4089
S'Communication'
p4090
sVcom.lge.appbox.client
p4091
S'Unknown'
p4092
sVnamco.pacman.cedemo
p4093
S'Arcade'
p4094
sVorg.thialfihar.android.apg
p4095
S'Communication'
p4096
sVair.air.SugarSugar
p4097
S'Puzzle'
p4098
sVcom.alfray.timeriffic
p4099
S'Tools'
p4100
sVcom.htc.zero
p4101
S'Social'
p4102
sVde.steverohrlack.statusagenda
p4103
S'Productivity'
p4104
sVcom.playstation.psstore
p4105
S'Unknown'
p4106
sVcom.kloonigames.crayon.humble
p4107
S'Unknown'
p4108
sVcom.google.android.gallery3d
p4109
S'Unknown'
p4110
sVcom.sec.android.app.SPenKeeper
p4111
S'Unknown'
p4112
sVcom.koushikdutta.backup.license
p4113
S'Tools'
p4114
sVcom.grooveshark.android.v1
p4115
S'Unknown'
p4116
sVcom.directv.navigator
p4117
S'Entertainment'
p4118
sVyuku.alkitab.reminder
p4119
S'Unknown'
p4120
sVcom.chanapps.four.activity
p4121
S'Unknown'
p4122
sVcom.fireflame.dungeonraid
p4123
S'Puzzle'
p4124
sVcom.squareup
p4125
S'Business'
p4126
sVcom.sonyericsson.customizedsettings
p4127
S'Unknown'
p4128
sVcom.thetalkerapp.main
p4129
S'Productivity'
p4130
sVpt.tmn.android.ptcenter
p4131
S'Tools'
p4132
sVcom.samsung.android.quickmemo
p4133
S'Unknown'
p4134
sVcom.cyanogenmod.settings.device
p4135
S'Unknown'
p4136
sVcom.dynamixsoftware.printhand
p4137
S'Business'
p4138
sVcom.sec.android.widgetapp.ap.hero.accuweather.widget
p4139
S'Unknown'
p4140
sVpl.androiddev.mobiletab
p4141
S'Productivity'
p4142
sVcom.powersaver1
p4143
S'Tools'
p4144
sVcom.samsung.android.app.lounge
p4145
S'Unknown'
p4146
sVcom.blockcallsgetcash
p4147
S'Tools'
p4148
sVcom.sec.android.app.easylauncher
p4149
S'Unknown'
p4150
sVcom.dotgears.flappybird
p4151
S'Unknown'
p4152
sVcom.sonymobile.autopairing
p4153
S'Unknown'
p4154
sVcom.sec.android.widgetapp.apnews
p4155
S'Unknown'
p4156
sVorg.qcontinuum.planets
p4157
S'Education'
p4158
sVcom.NP.teclado
p4159
S'Unknown'
p4160
sVcom.lego.starwars.theyodachronicles
p4161
S'Arcade'
p4162
sVcom.samsung.klmsagent
p4163
S'Unknown'
p4164
sVcom.lcis.seeder
p4165
S'Tools'
p4166
sVcom.lego.duplo.trains
p4167
S'Puzzle'
p4168
sVcom.patillosoftware.apps.txtpad
p4169
S'Unknown'
p4170
sVcom.lslk.sleepbot
p4171
S'Health &amp; Fitness'
p4172
sVcom.vp.alarmClockPlusV2
p4173
S'Lifestyle'
p4174
sVcom.internet.speed.meter
p4175
S'Tools'
p4176
sVde.tvspielfilm
p4177
S'Entertainment'
p4178
sVcom.zapstudio.transparent.app.free
p4179
S'Unknown'
p4180
sVcom.google.android.apps.gesturesearch
p4181
S'Tools'
p4182
sVcom.mailboxapp
p4183
S'Productivity'
p4184
sVcom.countercultured.irc.slim
p4185
S'Unknown'
p4186
sVcom.overlook.android.fing
p4187
S'Tools'
p4188
sVcom.froogloid.kring.google.zxing.client.android
p4189
S'Shopping'
p4190
sVcom.zl.inputmethod.latin
p4191
S'Unknown'
p4192
sVair.br.com.bitlabs.FLVPlayer
p4193
S'Media &amp; Video'
p4194
sVcom.agilesoftresource
p4195
S'Productivity'
p4196
sVtv.twitch.android.viewer
p4197
S'Entertainment'
p4198
sVpandamonium.noaaweather
p4199
S'Weather'
p4200
sVcom.latedroid.juiceplotter
p4201
S'Tools'
p4202
sVcom.netflix.mediaclient
p4203
S'Entertainment'
p4204
sVcom.aiteam.wifitogglewidget
p4205
S'Tools'
p4206
sVcom.stt.android
p4207
S'Health &amp; Fitness'
p4208
sVcom.LiteDroidStudios.app.ActivityTimer
p4209
S'Productivity'
p4210
sVorg.woltage.irssiconnectbot
p4211
S'Unknown'
p4212
sVcom.htc.music
p4213
S'Unknown'
p4214
sVcom.kludgery.android.groovein
p4215
S'Unknown'
p4216
sVcom.dailymotion.dailymotion
p4217
S'Entertainment'
p4218
sVcom.lge.smartshare.provider
p4219
S'Unknown'
p4220
sVcom.skt.skaf.OA00018282
p4221
S'Unknown'
p4222
sVorg.boskoi.android
p4223
S'Tools'
p4224
sVcom.motorola.repwtrafficmanager
p4225
S'Unknown'
p4226
sVcom.sonyericsson.oemCryptoReceiver
p4227
S'Unknown'
p4228
sVstealthychief.theme.axis
p4229
S'Personalization'
p4230
sVcom.global.foodpanda.android
p4231
S'Lifestyle'
p4232
sVde.stohelit.playerwidgets
p4233
S'Music &amp; Audio'
p4234
sVcom.antivirus
p4235
S'Communication'
p4236
sVorg.openintents.shopping
p4237
S'Shopping'
p4238
sVcom.seesmic
p4239
S'Social'
p4240
sVcom.morlunk.mumbleclient.free
p4241
S'Communication'
p4242
sVcom.google.android.apps.unveil
p4243
S'Productivity'
p4244
sVnl.telegraaf
p4245
S'News &amp; Magazines'
p4246
sVcom.benchevoor.huepro
p4247
S'Lifestyle'
p4248
sVcom.amazon.venezia
p4249
S'Unknown'
p4250
sVcom.askfm
p4251
S'Social'
p4252
sVpt.ibrisa
p4253
S'Tools'
p4254
sVcom.smartandroidapps.audiowidget
p4255
S'Music &amp; Audio'
p4256
sVjp.co.noxi.apppicker
p4257
S'Unknown'
p4258
sVcom.tripadvisor.android.apps.cityguide.copenhagen
p4259
S'Travel &amp; Local'
p4260
sVcom.indepico.iptester
p4261
S'Tools'
p4262
sVcom.android.wallpapercropper
p4263
S'Unknown'
p4264
sVcom.kt.serviceagent
p4265
S'Unknown'
p4266
sVcom.bittorrent.sync
p4267
S'Productivity'
p4268
sVit.sineo.android.noFrillsCPU
p4269
S'Tools'
p4270
sVlk.bhasha.dictionary
p4271
S'Books &amp; Reference'
p4272
sVcom.popularapp.fakecall
p4273
S'Productivity'
p4274
sVapp.greyshirts.firewall
p4275
S'Productivity'
p4276
sVcom.linkbubble.playstore
p4277
S'Personalization'
p4278
sVcom.xorware.android.apps
p4279
S'Personalization'
p4280
sVtw.abgne.flashlight
p4281
S'Tools'
p4282
sVcom.softwinner.explore
p4283
S'Unknown'
p4284
sVcom.sonyericsson.notes
p4285
S'Unknown'
p4286
sVcom.pixlr.express
p4287
S'Photography'
p4288
sVorg.yoki.android.buienalarm
p4289
S'Weather'
p4290
sVcom.mikandi.android.v3.manager
p4291
S'Unknown'
p4292
sVcom.google.android.apps.onetoday
p4293
S'Lifestyle'
p4294
sVcom.qq.qcloud
p4295
S'Productivity'
p4296
sVcom.tidus.Ephemeridroid
p4297
S'Tools'
p4298
sVnz.org.aucklandtransport.maxx.mobile
p4299
S'Transportation'
p4300
sVcom.jrdcom.weather
p4301
S'Unknown'
p4302
sVcom.motorola.audiomonitor
p4303
S'Tools'
p4304
sVcom.navyfederal.android
p4305
S'Finance'
p4306
sVcom.retorikdevelopment.apinaviewer
p4307
S'Entertainment'
p4308
sVcom.yelp.android
p4309
S'Travel &amp; Local'
p4310
sVcom.pinger.ppa
p4311
S'Communication'
p4312
sVcom.sec.android.sCloudBackupApp
p4313
S'Unknown'
p4314
sVmco.prj.srv.bwdgs
p4315
S'Board'
p4316
sVcom.android.wifidirecttransfer
p4317
S'Unknown'
p4318
sVcom.tbig.playerpro.soundpack
p4319
S'Music &amp; Audio'
p4320
sVcom.Aetherpal.Device
p4321
S'Unknown'
p4322
sVcom.acer.android.liveupdater
p4323
S'Unknown'
p4324
sVcom.eightelements.speedbattle
p4325
S'Educational'
p4326
sVfi.nordea.mobilebank
p4327
S'Finance'
p4328
sVcom.htc.task.gtask
p4329
S'Unknown'
p4330
sVcom.mb.swipedial.donate
p4331
S'Communication'
p4332
sVcom.motorola.android.omadm.sprint.dataservice
p4333
S'Unknown'
p4334
sVcom.samsung.android.app.pinboard
p4335
S'Unknown'
p4336
sVcom.Tech7.KitKatLockScreen
p4337
S'Personalization'
p4338
sVcom.sec.android.SimpleWidget
p4339
S'Unknown'
p4340
sVcom.ramkumar.mp3cutter
p4341
S'Unknown'
p4342
sVcom.telenav.app.android.sprint
p4343
S'Unknown'
p4344
sVcom.fjsoft.myphoneexplorer.client
p4345
S'Tools'
p4346
sVcom.avira.android
p4347
S'Tools'
p4348
sVcom.mobogenie
p4349
S'Unknown'
p4350
sVat.abraxas.powerwidget
p4351
S'Tools'
p4352
sVcom.google.android.browser
p4353
S'Unknown'
p4354
sVcom.google.android.youtube
p4355
S'Media &amp; Video'
p4356
sVcom.android.phasebeam
p4357
S'Unknown'
p4358
sVcom.actionlauncher.playstore
p4359
S'Personalization'
p4360
sVcom.androidbeach.smartreceiverpro
p4361
S'Communication'
p4362
sVcom.arcusweather.darksky
p4363
S'Weather'
p4364
sVcom.kebab.Llama
p4365
S'Tools'
p4366
sVcom.fingersoft.hillclimb
p4367
S'Racing'
p4368
sVuk.co.aifactory.ginrummyfree
p4369
S'Card'
p4370
sVcom.sebouh00.smartwifitoggler
p4371
S'Tools'
p4372
sVcom.naturalmotion.csrracing
p4373
S'Racing'
p4374
sVcom.droid27.senseflipclockweather
p4375
S'Weather'
p4376
sVcom.bigduckgames.flowbridges
p4377
S'Puzzle'
p4378
sVst.brothas.mtgoxwidget
p4379
S'Finance'
p4380
sVcom.motorola.smartmode
p4381
S'Unknown'
p4382
sVcom.android.cellbroadcastreceiver
p4383
S'Unknown'
p4384
sVcom.shotzoom.golfshotgps
p4385
S'Sports'
p4386
sVcom.sec.setdefaultlauncher
p4387
S'Unknown'
p4388
sVcom.android.calendar
p4389
S'Unknown'
p4390
sVcom.kashif.TalkingCallerID
p4391
S'Productivity'
p4392
sVcom.fsecure.mobile.younited
p4393
S'Productivity'
p4394
sVcom.android.keepass
p4395
S'Tools'
p4396
sVcom.miniclip.plagueinc
p4397
S'Simulation'
p4398
sVcom.cousinHub.Bitcoin_PRO
p4399
S'Finance'
p4400
sVcom.quizup.core
p4401
S'Trivia'
p4402
sVcom.comerica.mobilebanking
p4403
S'Finance'
p4404
sVcom.lge.vvm
p4405
S'Unknown'
p4406
sVcom.fidelity.android
p4407
S'Finance'
p4408
sVcom.truphone.andrd
p4409
S'Communication'
p4410
sVcom.mobisystems.fileman
p4411
S'Business'
p4412
sVcom.mediatek.engineermode
p4413
S'Unknown'
p4414
sVinfo.guardianproject.browser
p4415
S'Communication'
p4416
sVru.mail.cloud
p4417
S'Productivity'
p4418
sVcom.skvalex.callrecorder
p4419
S'Tools'
p4420
sVcom.sec.android.inputmethod
p4421
S'Unknown'
p4422
sVcom.imdb.mobile
p4423
S'Entertainment'
p4424
sVcom.moblynx.clockjbplus
p4425
S'Personalization'
p4426
sVcom.fsck.k9
p4427
S'Communication'
p4428
sVorg.mozilla.firefox
p4429
S'Communication'
p4430
sVcom.sec.tetheringprovision
p4431
S'Unknown'
p4432
sVcom.fsecure.pwmgr
p4433
S'Unknown'
p4434
sVcom.iops.weblifehacker
p4435
S'Unknown'
p4436
sVcom.sonyericsson.psm.sysmonservice
p4437
S'Unknown'
p4438
sVcom.intsig.camscanner
p4439
S'Productivity'
p4440
sVfahrbot.apps.screen.pro1
p4441
S'Tools'
p4442
sVcom.android.externalstorage
p4443
S'Unknown'
p4444
sVnet.bytten.xkcdviewer
p4445
S'Comics'
p4446
sVdk.almbrand.mobilbank
p4447
S'Finance'
p4448
sVcom.socialnmobile.dictapps.notepad.color.note
p4449
S'Productivity'
p4450
sVcom.sec.pcw
p4451
S'Productivity'
p4452
sVcom.vzw.apnservice
p4453
S'Unknown'
p4454
sVcom.samsung.android.tripwidget
p4455
S'Unknown'
p4456
sVcom.sec.android.directshare
p4457
S'Unknown'
p4458
sVcom.avast.android.mobilesecurity
p4459
S'Tools'
p4460
sVcom.google.sample.cast.refplayer
p4461
S'Unknown'
p4462
sVcom.aiteam.bluetoothtogglewidget
p4463
S'Tools'
p4464
sVcom.yahoo.mobile.client.android.weather
p4465
S'Weather'
p4466
sVcom.skt.tbmon
p4467
S'Unknown'
p4468
sVcom.copy
p4469
S'Productivity'
p4470
sVcom.maxxt.pcradio
p4471
S'Music &amp; Audio'
p4472
sVcom.bork.dsp.datuna
p4473
S'Music &amp; Audio'
p4474
sVcom.seekingalpha.webwrapper
p4475
S'Finance'
p4476
sVcom.pn.helper
p4477
S'Unknown'
p4478
sVcom.runtastic.android.pro2
p4479
S'Health &amp; Fitness'
p4480
sVcom.htc.lmw
p4481
S'Unknown'
p4482
sVcom.deeptrouble.yaarreddit
p4483
S'News &amp; Magazines'
p4484
sVcom.quoord.tapatalkxdapre.activity
p4485
S'Communication'
p4486
sVcom.aware.plugin.google.activityrecognition
p4487
S'Unknown'
p4488
sVcom.tripit.amazon.paid
p4489
S'Unknown'
p4490
sVcom.motorola.localwipe.policy
p4491
S'Unknown'
p4492
sVcom.iphonease.ledflashlight.button
p4493
S'Tools'
p4494
sVcom.kontan.kontandroid
p4495
S'News &amp; Magazines'
p4496
sVcom.mediatek.batterywarning
p4497
S'Unknown'
p4498
sVcom.limbic.towermadness2
p4499
S'Strategy'
p4500
sVcom.king.candycrushsaga
p4501
S'Casual'
p4502
sVcom.sec.android.app.sysscope
p4503
S'Unknown'
p4504
sVcom.fairus.fair
p4505
S'News &amp; Magazines'
p4506
sVcom.htc.simplelauncher
p4507
S'Unknown'
p4508
sVcom.touchtype.swiftkey.phone.trial
p4509
S'Unknown'
p4510
sVfi.iki.murgo.irssinotifier
p4511
S'Communication'
p4512
sVcom.sec.android.app.ocr
p4513
S'Tools'
p4514
sVcom.android.pagebuddynotisvc
p4515
S'Unknown'
p4516
sVvStudio.Android.Camera360Plus
p4517
S'Unknown'
p4518
sVcom.wandoujia.phoenix2.usbproxy
p4519
S'Unknown'
p4520
sVcom.trackyapps.street_lens
p4521
S'Travel &amp; Local'
p4522
sVcom.strava
p4523
S'Health &amp; Fitness'
p4524
sVcom.onepassword.passwordmanager
p4525
S'Unknown'
p4526
sVcom.android.inputmethod.latin
p4527
S'Unknown'
p4528
sVcom.sonyericsson.androidapp.everchwallpaper
p4529
S'Unknown'
p4530
sVeu.chainfire.supersu
p4531
S'Tools'
p4532
sVcom.sec.android.app.MmsProvision
p4533
S'Unknown'
p4534
sVcom.jb.gokeyboard
p4535
S'Tools'
p4536
sVcom.ventismedia.android.mediamonkeybeta
p4537
S'Music &amp; Audio'
p4538
sVcom.sec.smartcard.pinservice
p4539
S'Unknown'
p4540
sVcom.lge.bnr
p4541
S'Unknown'
p4542
sVcom.android.galaxy4
p4543
S'Unknown'
p4544
sVcom.microsoft.office.officehub
p4545
S'Productivity'
p4546
sVcom.pereira.autoreboot
p4547
S'Productivity'
p4548
sVcom.cyanogenmod.fota
p4549
S'Unknown'
p4550
sVcom.sec.android.app.shealth
p4551
S'Unknown'
p4552
sVcom.google.glass.companion
p4553
S'Tools'
p4554
sVcom.lge.settings.easy
p4555
S'Unknown'
p4556
sVcom.xing.android
p4557
S'Social'
p4558
sVcom.drivemode
p4559
S'Productivity'
p4560
sVcom.htc.match
p4561
S'Unknown'
p4562
sVcom.infraware.polarisoffice5
p4563
S'Unknown'
p4564
sVcom.shinycore.picsaypro
p4565
S'Photography'
p4566
sVcom.bigeyes0x0.trickstermod
p4567
S'Tools'
p4568
sVcom.rageconsulting.android.lightflow
p4569
S'Tools'
p4570
sVorg.pocketworkstation.pckeyboard
p4571
S'Productivity'
p4572
sVcom.sonymobile.remotefileaccess
p4573
S'Unknown'
p4574
sVcom.lge.tts.sfplus
p4575
S'Unknown'
p4576
sVcom.miniclip.eightballpool
p4577
S'Sports'
p4578
sVteam.vc.kompaskiosk
p4579
S'News &amp; Magazines'
p4580
sVcom.m0narx.su
p4581
S'Unknown'
p4582
sVcom.haxor
p4583
S'Tools'
p4584
sVcom.samsung.android.covermemo
p4585
S'Unknown'
p4586
sVcom.motorola.deviceauthenticator
p4587
S'Unknown'
p4588
sS'com.Seriously.BestFiends'
p4589
S'Puzzle'
p4590
sVcom.altaine.subcard
p4591
S'Lifestyle'
p4592
sVcom.lastpass.lpandroid
p4593
S'Productivity'
p4594
sVcom.sonymobile.podcast
p4595
S'Unknown'
p4596
sVcom.sony.gsmguxmk.xperiaprivilege2012
p4597
S'Unknown'
p4598
sVcom.pantech.app.pillreminder
p4599
S'Unknown'
p4600
sVcom.sonyericsson.provider.voipcalllog
p4601
S'Unknown'
p4602
sVcom.RobotUnicornAttack
p4603
S'Arcade'
p4604
sVsi.src.tagsee
p4605
S'Tools'
p4606
sVcom.lge.lockscreensettings
p4607
S'Unknown'
p4608
sVcom.sunspot.ray.pro
p4609
S'Personalization'
p4610
sVcom.atdevsoft.apps.extdatewidgetlite
p4611
S'Personalization'
p4612
sVcom.lge.app.floating.res
p4613
S'Unknown'
p4614
sVcom.mventus.selfcare.activity
p4615
S'Productivity'
p4616
sVcom.sec.chaton
p4617
S'Communication'
p4618
sVcom.lge.videoplayer
p4619
S'Unknown'
p4620
sVcom.htc.task
p4621
S'Unknown'
p4622
sVcom.appuccino.frequencyfree
p4623
S'Tools'
p4624
sVdk.dsl.ordnet.ddo
p4625
S'Books &amp; Reference'
p4626
sVcom.levelup.beautifulwidgets
p4627
S'Personalization'
p4628
sVorg.cprados.wificellmanager
p4629
S'Unknown'
p4630
sVcom.teamviewer.teamviewer.market.mobile
p4631
S'Productivity'
p4632
sVnet.yosiopp.hexclock
p4633
S'Tools'
p4634
sVcom.latedroid.juicedefender
p4635
S'Productivity'
p4636
sVcom.modoohut.dialer
p4637
S'Communication'
p4638
sVcom.dolphin.browser.zero
p4639
S'Communication'
p4640
sVcom.yassirh.digitalocean
p4641
S'Productivity'
p4642
sVcom.google.android.inputmethod.pinyin
p4643
S'Tools'
p4644
sVcom.duckduckgo.mobile.android
p4645
S'Books &amp; Reference'
p4646
sVcom.gnnetcom.jabraservice
p4647
S'Communication'
p4648
sVcom.minus.android
p4649
S'Social'
p4650
sVcom.gunrose.aircommander
p4651
S'Simulation'
p4652
sVcom.textra
p4653
S'Communication'
p4654
sVcom.smsrobot.jokes
p4655
S'Unknown'
p4656
sVorg.roccat.powergrid
p4657
S'Productivity'
p4658
sVorg.dayup.gnotes
p4659
S'Productivity'
p4660
sVcom.jrummy.liberty.toolbox
p4661
S'Tools'
p4662
sVcom.espn.radio
p4663
S'Sports'
p4664
sVcom.UCMobile.intl
p4665
S'Communication'
p4666
sVcom.ipsec.vpnclient
p4667
S'Unknown'
p4668
sVcom.redbox.android.activity
p4669
S'Entertainment'
p4670
sVde.theknut.xposedgelsettings
p4671
S'Tools'
p4672
sVcom.lge.music
p4673
S'Unknown'
p4674
sVcom.samsung.android.strokesearch
p4675
S'Unknown'
p4676
sVcom.thomasbowker.lynerelease
p4677
S'Puzzle'
p4678
sVcom.andymstone.accuratecompass
p4679
S'Tools'
p4680
sVcom.wakdev.wdnfc
p4681
S'Tools'
p4682
sVlivio.pack.lang.en_US
p4683
S'Books &amp; Reference'
p4684
sVeu.chainfire.firepaper.fivehundredpx
p4685
S'Photography'
p4686
sVcom.ttxapps.dropsync
p4687
S'Productivity'
p4688
sVorg.jessies.dalvikexplorer
p4689
S'Tools'
p4690
sVcom.motorola.slpc
p4691
S'Communication'
p4692
sVcom.alexcruz.fr3donate
p4693
S'Personalization'
p4694
sVcom.sonyericsson.cellbroadcast.widget
p4695
S'Unknown'
p4696
sVcom.qualcomm.cabl
p4697
S'Unknown'
p4698
sVcom.htc.sense.hsp
p4699
S'Libraries &amp; Demo'
p4700
sVcom.beatsmusic.android.client
p4701
S'Music &amp; Audio'
p4702
sVbbc.mobile.weather
p4703
S'Weather'
p4704
sVcom.sec.android.widgetapp.clockweather.clockwidget
p4705
S'Unknown'
p4706
sVnet.peakgames.lostbubble
p4707
S'Arcade'
p4708
sVlk.bhasha.hirutv
p4709
S'Entertainment'
p4710
sVcom.yle.webtv
p4711
S'Media &amp; Video'
p4712
sVpastrylab.clocknow
p4713
S'Personalization'
p4714
sVjp.r246.twicca
p4715
S'Social'
p4716
sVcom.mcp.android.wocs
p4717
S'Tools'
p4718
sVcom.pantech.app.voicerecorder
p4719
S'Unknown'
p4720
sVcom.iobit.mobilecare
p4721
S'Tools'
p4722
sVcom.fappbulously.movie
p4723
S'Unknown'
p4724
sVcom.sonymobile.dlna
p4725
S'Unknown'
p4726
sVcom.samsung.clipboardsaveservice
p4727
S'Unknown'
p4728
sVcom.sec.android.app.twdvfs
p4729
S'Unknown'
p4730
sVcom.walktohelp.android
p4731
S'Social'
p4732
sVcom.arcana.roamer
p4733
S'Travel &amp; Local'
p4734
sVcom.umang.dashnotifier
p4735
S'Personalization'
p4736
sVcom.android.defcontainer
p4737
S'Unknown'
p4738
sVcom.sonyericsson.tvout.mhl
p4739
S'Unknown'
p4740
sVcom.android.contacts
p4741
S'Unknown'
p4742
sVcom.htc.camera
p4743
S'Photography'
p4744
sVcom.mobilemeans.spr
p4745
S'Lifestyle'
p4746
sVcom.flexaspect.android.everycallcontrol
p4747
S'Communication'
p4748
sVcom.sika524.android.everform
p4749
S'Productivity'
p4750
sVcom.neulion.android.zon2013
p4751
S'Media &amp; Video'
p4752
sVcom.vlcforandroid.vlcdirectprofree
p4753
S'Media &amp; Video'
p4754
sVjp.gungho.padEN
p4755
S'Puzzle'
p4756
sVcom.a30corner.wellbrightness
p4757
S'Tools'
p4758
sVcom.lge.wireless_storage
p4759
S'Unknown'
p4760
sVcom.samsung.android.walletmanager
p4761
S'Unknown'
p4762
sVcom.mtel.metrodaily
p4763
S'News &amp; Magazines'
p4764
sVmagory.mahjongpremium
p4765
S'Puzzle'
p4766
sVcom.fevdev.nakedbrowserpro
p4767
S'Communication'
p4768
sVcom.lonelycatgames.Xplore
p4769
S'Tools'
p4770
sVcom.systemupdater.main
p4771
S'Tools'
p4772
sVcom.mobilityware.solitaire
p4773
S'Card'
p4774
sVcom.htc.htcdlnamiddlelayer
p4775
S'Unknown'
p4776
sVcom.vodafone.smhs
p4777
S'Tools'
p4778
sVnet.sylark.apkextractor
p4779
S'Unknown'
p4780
sVcom.instabridge.android
p4781
S'Social'
p4782
sVcom.liveleak.liveleak
p4783
S'Entertainment'
p4784
sVcom.tbig.playerpro
p4785
S'Music &amp; Audio'
p4786
sVcom.sonymobile.slideshow
p4787
S'Unknown'
p4788
sVcom.sportsinsights
p4789
S'Sports'
p4790
sVcom.sonyericsson.android.smartsearch
p4791
S'Unknown'
p4792
sVorg.lds.ldssa
p4793
S'Books &amp; Reference'
p4794
sVcom.SystemCleanup.Inteks.org
p4795
S'Tools'
p4796
sVcom.t_systems.ctv.android
p4797
S'Entertainment'
p4798
sVorg.kman.WifiManager
p4799
S'Productivity'
p4800
sVcom.raycom.hnn
p4801
S'News &amp; Magazines'
p4802
sVcom.spritemobile.backup.alcatel
p4803
S'Unknown'
p4804
sVjp.colopl.enslingshot
p4805
S'Role Playing'
p4806
sVcom.geeksoft.webdroid
p4807
S'Unknown'
p4808
sVcom.sec.android.provider.logsprovider
p4809
S'Unknown'
p4810
sVcom.konylabs.capitalone
p4811
S'Finance'
p4812
sVcom.eightelements.aduduattackfree
p4813
S'Arcade'
p4814
sVorg.simalliance.openmobileapi.service
p4815
S'Unknown'
p4816
sVcom.leyinetwork.longan.voicechanger
p4817
S'Entertainment'
p4818
sVcom.samsung.android.app.storyalbumwidget
p4819
S'Unknown'
p4820
sVorg.telegram.messenger
p4821
S'Communication'
p4822
sVcom.sec.pcw.device
p4823
S'Unknown'
p4824
sVcom.james.SmartTaskManager
p4825
S'Productivity'
p4826
sVcom.macropinch.swan
p4827
S'Weather'
p4828
sVcom.sec.android.daemonapp.ap.yonhapnews
p4829
S'Unknown'
p4830
sVcom.locationlabs.sparkle.yellow.pre
p4831
S'Unknown'
p4832
sVch.search.android.search
p4833
S'Books &amp; Reference'
p4834
sVcom.microimage.hirufm
p4835
S'Entertainment'
p4836
sVcom.fusego.cloudampz.free.android
p4837
S'Music &amp; Audio'
p4838
sVcom.hancom.office.hcell.viewer.hcell_viewer_apk
p4839
S'Unknown'
p4840
sVcom.skt.skaf.Z0000OMPDL
p4841
S'Unknown'
p4842
sVcom.tt.android.dm.view
p4843
S'Tools'
p4844
sVcom.android.providers.partnerbookmarks
p4845
S'Unknown'
p4846
sVcom.sec.att.apo
p4847
S'Unknown'
p4848
sVcom.mobilereference.TravelPhilippinesAppFree
p4849
S'Travel &amp; Local'
p4850
sVcom.androidkitkat.wallpapers
p4851
S'Unknown'
p4852
sVcom.vistechprojects.planimeter
p4853
S'Productivity'
p4854
sVsmsr.com.cw
p4855
S'Lifestyle'
p4856
sVcom.sec.android.socialhub
p4857
S'Unknown'
p4858
sVcom.concur.breeze
p4859
S'Business'
p4860
sVpt.ptsgps.android.ept
p4861
S'Unknown'
p4862
sVcom.hkgeopark.enjoyhiking
p4863
S'Travel &amp; Local'
p4864
sVcom.sec.android.app.music
p4865
S'Unknown'
p4866
sVcom.kt.wifisvc
p4867
S'Unknown'
p4868
sVcom.aldiko.android
p4869
S'Books &amp; Reference'
p4870
sVcom.sonyericsson.tvlauncher
p4871
S'Unknown'
p4872
sVorg.xbmc.xbmc
p4873
S'Unknown'
p4874
sVcom.sonyericsson.hdmi.controlservice
p4875
S'Unknown'
p4876
sVcom.isbell.ben.safenotes
p4877
S'Productivity'
p4878
sVcom.vgz.medicijnen
p4879
S'Medical'
p4880
sVcom.indepico.netstat
p4881
S'Tools'
p4882
sVjp.naver.line.android
p4883
S'Communication'
p4884
sVcom.lifehacker.us
p4885
S'News &amp; Magazines'
p4886
sVcom.andromo.dev19570.app29554
p4887
S'Sports'
p4888
sVcom.att.myWireless
p4889
S'Productivity'
p4890
sVcom.samsung.helphub
p4891
S'Unknown'
p4892
sVcom.yahoo.mobile.client.android.flickr
p4893
S'Photography'
p4894
sVcom.tripadvisor.android.apps.cityguide.catalog
p4895
S'Travel &amp; Local'
p4896
sVcom.supertext.phone
p4897
S'Communication'
p4898
sVcom.touchtype.swiftkey.public.beta
p4899
S'Unknown'
p4900
sVdk.spatifo.dublo
p4901
S'Puzzle'
p4902
sVcom.lego.mindstorms.robotcommander
p4903
S'Tools'
p4904
sVcom.ultimateguitar.tabs
p4905
S'Music &amp; Audio'
p4906
sVcom.jrdcom.alcatelhelp
p4907
S'Unknown'
p4908
sVcom.pantech.dmc
p4909
S'Unknown'
p4910
sVcom.dsd164.snake97
p4911
S'Arcade'
p4912
sVcom.cnn.mobile.android.phone
p4913
S'News &amp; Magazines'
p4914
sVcom.ucamera.ucampro
p4915
S'Photography'
p4916
sVcom.bskyb.skynews.android
p4917
S'News &amp; Magazines'
p4918
sVcom.forshared.music
p4919
S'Music &amp; Audio'
p4920
sVcom.sec.yosemite.tab
p4921
S'Entertainment'
p4922
sVcom.publicobject.shush
p4923
S'Tools'
p4924
sVcom.novellectual.speedreadingcoach
p4925
S'Books &amp; Reference'
p4926
sVcom.jv.falcon
p4927
S'Communication'
p4928
sVcom.flowdock.jorge
p4929
S'Business'
p4930
sVorg.cyanogenmod.themes.provider
p4931
S'Unknown'
p4932
sVcom.amazon.windowshop
p4933
S'Shopping'
p4934
sVcom.noinnion.android.newsplus.extension.inoreader
p4935
S'News &amp; Magazines'
p4936
sVcom.sec.android.provider.snote
p4937
S'Unknown'
p4938
sVcom.motorola.widget.favorites
p4939
S'Unknown'
p4940
sVorg.mariotaku.twidere
p4941
S'Communication'
p4942
sVcom.realvnc.android.remote
p4943
S'Unknown'
p4944
sVcom.overdrive.mobile.android.mediaconsole
p4945
S'Books &amp; Reference'
p4946
sVcom.jupiterapps.phoneusage
p4947
S'Tools'
p4948
sVcom.mobileuncle.toolbox
p4949
S'Tools'
p4950
sVcom.htc.calendar
p4951
S'Unknown'
p4952
sVcom.google.android.googlequicksearchbox
p4953
S'Tools'
p4954
sVnl.freed.medalert
p4955
S'Medical'
p4956
sVuk.co.sevendigital.android
p4957
S'Music &amp; Audio'
p4958
sVcom.pantech.app.alwaysonMusic
p4959
S'Unknown'
p4960
sVcom.compalcomm.eng
p4961
S'Unknown'
p4962
sVcom.mint
p4963
S'Finance'
p4964
sVcom.appturbo.appturboDK
p4965
S'Lifestyle'
p4966
sVcom.s0up.goomanager
p4967
S'Unknown'
p4968
sVcom.agilestorm.fakecall.pro
p4969
S'Productivity'
p4970
sVui.robot.rotatedonate
p4971
S'Tools'
p4972
sVuk.co.northernbank.android.tribank
p4973
S'Finance'
p4974
sVcom.riva.sueca
p4975
S'Card'
p4976
sVcom.acer.android.widget.weather2
p4977
S'Weather'
p4978
sVcom.AndroidA.DroiDownloader
p4979
S'Tools'
p4980
sVcom.battery.saver.fast.charging
p4981
S'Unknown'
p4982
sVcom.vimeo.android.videoapp
p4983
S'Entertainment'
p4984
sVcom.noinnion.android.greader.reader
p4985
S'News &amp; Magazines'
p4986
sVcom.ssrij.quickcamera
p4987
S'Unknown'
p4988
sVcom.hipmunk.android
p4989
S'Travel &amp; Local'
p4990
sVcom.calengoo.android
p4991
S'Productivity'
p4992
sVcom.att.android.attsmartwifi
p4993
S'Tools'
p4994
sVcom.lge.vmemo
p4995
S'Social'
p4996
sVcom.appstar.callrecorder
p4997
S'Tools'
p4998
sVcom.iseeyoulite
p4999
S'Tools'
p5000
sVcom.sec.android.app.memo
p5001
S'Unknown'
p5002
sVca.metronews.Metro
p5003
S'News &amp; Magazines'
p5004
sVcom.jrdcom.launcher
p5005
S'Unknown'
p5006
sVcom.hayava.android.SoundBoard
p5007
S'Sports'
p5008
sVcom.ted.android
p5009
S'Education'
p5010
sVru.org.amip.ClockSync
p5011
S'Tools'
p5012
sVcom.halfbrick.fruitninjafree
p5013
S'Arcade'
p5014
sVcom.androidloard.optimizemaster
p5015
S'Lifestyle'
p5016
sVcom.rovio.angrybirdsstarwarsii.ads
p5017
S'Arcade'
p5018
sVcom.domobile.applockwatcher
p5019
S'Tools'
p5020
sVcom.metropcs.rcsmetro
p5021
S'Communication'
p5022
sVcom.htc.ereader
p5023
S'Unknown'
p5024
sVcom.aw.AppWererabbit
p5025
S'Tools'
p5026
sVcom.google.android.deskclock
p5027
S'Unknown'
p5028
sVcom.samsung.commonimsservice
p5029
S'Unknown'
p5030
sVcom.samsung.android.MtpApplication
p5031
S'Unknown'
p5032
sVcom.paranoid.paranoidota
p5033
S'Unknown'
p5034
sVcom.geolink.taxilink
p5035
S'Transportation'
p5036
sVcom.FD.updater
p5037
S'Tools'
p5038
sVcom.dambara.medremindpro
p5039
S'Health &amp; Fitness'
p5040
sVcom.katecca.screenofflock
p5041
S'Tools'
p5042
sVcom.symbolic.pitchlab
p5043
S'Music &amp; Audio'
p5044
sVcom.hikaru.photowidget
p5045
S'Photography'
p5046
sVcom.moblynx.camerakk
p5047
S'Photography'
p5048
sVcom.dashlabs.dash.android
p5049
S'Travel &amp; Local'
p5050
sVcom.motorola.wappushsi
p5051
S'Unknown'
p5052
sVandroid.romstats
p5053
S'Unknown'
p5054
sVcom.sec.android.widgetapp.ap.hero.accuweather
p5055
S'Unknown'
p5056
sVcom.sonymobile.retaildemo
p5057
S'Unknown'
p5058
sVcom.nero.android.htc.sync.installer
p5059
S'Unknown'
p5060
sVnet.imatruck.betterweather
p5061
S'Weather'
p5062
sVcom.sec.android.app.knoxlauncher
p5063
S'Unknown'
p5064
sVcom.scoompa.voicechanger
p5065
S'Entertainment'
p5066
sVcom.vitocassisi.luxlite
p5067
S'Tools'
p5068
sVcom.sec.android.allshare.service.mediashare
p5069
S'Unknown'
p5070
sVcom.contactive
p5071
S'Communication'
p5072
sVcom.samsung.mdl.radio
p5073
S'Music &amp; Audio'
p5074
sVcom.ifrins.hipstacast
p5075
S'Music &amp; Audio'
p5076
sVcom.booking
p5077
S'Travel &amp; Local'
p5078
sVcom.lge.sizechangable.photoalbum
p5079
S'Unknown'
p5080
sVcom.ipsec.service
p5081
S'Unknown'
p5082
sVcom.sonymobile.smartconnect.smartwatch2
p5083
S'Communication'
p5084
sVcom.sapps.android.NoWallpaper
p5085
S'Personalization'
p5086
sVcom.motorola.messaging
p5087
S'Unknown'
p5088
sVcom.tgrape.android.radar
p5089
S'Unknown'
p5090
sVnl.ns.android.activity
p5091
S'Travel &amp; Local'
p5092
sVcom.vonage.TimeToCall
p5093
S'Communication'
p5094
sVcom.sonyericsson.illumination.service
p5095
S'Unknown'
p5096
sVcom.google.android.apps.cloudprint
p5097
S'Productivity'
p5098
sVorg.vadel.mangawatchman.full
p5099
S'Unknown'
p5100
sVcom.arkalogic.bni.activity
p5101
S'Finance'
p5102
sVcom.sec.android.widgetapp.buddiesnow
p5103
S'Unknown'
p5104
sVcom.justeat.app.ca
p5105
S'Lifestyle'
p5106
sVcom.trello
p5107
S'Productivity'
p5108
sVfm.clean
p5109
S'Productivity'
p5110
sVcom.dotsandlines.carbon
p5111
S'Unknown'
p5112
sVcom.bambuna.podcastaddict
p5113
S'Media &amp; Video'
p5114
sVcom.sonyericsson.shutdownanim
p5115
S'Unknown'
p5116
sVnet.endoftime.android.forumrunner.tdpri
p5117
S'Social'
p5118
sVcom.mediatek.mtklogger
p5119
S'Unknown'
p5120
sVorg.zwanoo.android.speedtest
p5121
S'Tools'
p5122
sVcom.sec.smartcard.manager
p5123
S'Unknown'
p5124
sVcom.google.android.exchange
p5125
S'Unknown'
p5126
sVcom.adsk.sketchbookhd.galaxy.oem
p5127
S'Unknown'
p5128
sVdk.logisoft.aircontrolfull
p5129
S'Casual'
p5130
sVcom.sp.protector.helper
p5131
S'Tools'
p5132
sVcom.htc.android.mail
p5133
S'Unknown'
p5134
sVcom.spotify.mobile.android.ui
p5135
S'Unknown'
p5136
sVcom.avg.privacyfix
p5137
S'Social'
p5138
sVpt.sapo.mobile.android.cinema
p5139
S'Entertainment'
p5140
sVcom.sonymobile.photoanalyzer
p5141
S'Unknown'
p5142
sVcom.garmin.android.apps.connectmobile
p5143
S'Health &amp; Fitness'
p5144
sVcom.voxofon
p5145
S'Communication'
p5146
sVcom.sonyericsson.capabilities
p5147
S'Unknown'
p5148
sVcom.sonymobile.musicslideshow
p5149
S'Unknown'
p5150
sVcom.motorola.sprint.entitlement
p5151
S'Unknown'
p5152
sVcom.imangi.templerun2
p5153
S'Action'
p5154
sVcom.qihoo.security
p5155
S'Tools'
p5156
sVcom.androidlord.optimizationbox
p5157
S'Productivity'
p5158
sVcom.hulu.plus
p5159
S'Entertainment'
p5160
sVcom.cyanogenmod.filemanager
p5161
S'Unknown'
p5162
sVcom.trulia.android.rentals
p5163
S'Lifestyle'
p5164
sVcom.simplecity.muzei.music
p5165
S'Personalization'
p5166
sVkcast.android.widget
p5167
S'Finance'
p5168
sVcom.lge.appwidget.lgsearch
p5169
S'Unknown'
p5170
sVcom.toson.londontransportfree
p5171
S'Unknown'
p5172
sVcom.android.settings
p5173
S'Unknown'
p5174
sVcom.droid4you.application.wallet
p5175
S'Finance'
p5176
sVcom.google.android.apps.giant
p5177
S'Productivity'
p5178
sVcom.symantec.mobilesecurity
p5179
S'Tools'
p5180
sVcom.asurion.android.mobilerecovery.sprint
p5181
S'Tools'
p5182
sVcom.rhapsody.napster
p5183
S'Music &amp; Audio'
p5184
sVcom.lge.mhlmultimediahome
p5185
S'Unknown'
p5186
sVcom.mtr.mtrmobile
p5187
S'Travel &amp; Local'
p5188
sVcom.android.browser.provider
p5189
S'Unknown'
p5190
sVcom.lookout
p5191
S'Tools'
p5192
sVcom.google.android.tts
p5193
S'Tools'
p5194
sVcom.acer.android.datatraffic
p5195
S'Unknown'
p5196
sVcom.sec.android.providers.drm
p5197
S'Unknown'
p5198
sVcom.zonewalker.acar
p5199
S'Transportation'
p5200
sVjoewu.dmm
p5201
S'Tools'
p5202
sVcom.jiubang.browser
p5203
S'Communication'
p5204
sVcom.example.getchamadas
p5205
S'Unknown'
p5206
sVcom.sonyericsson.textinput.uxp
p5207
S'Communication'
p5208
sVcom.opera.max
p5209
S'Tools'
p5210
sVcom.sonyericsson.customizedappinstaller
p5211
S'Unknown'
p5212
sVcom.lge.sizechangable.finance
p5213
S'Unknown'
p5214
sVcom.djskarpia.quadro
p5215
S'Personalization'
p5216
sVcom.mobnetic.coinguardian
p5217
S'Finance'
p5218
sVcom.htc.cirmodule
p5219
S'Unknown'
p5220
sVcom.google.android.videoeditor
p5221
S'Unknown'
p5222
sVcom.samsung.scrc.idi.server
p5223
S'Unknown'
p5224
sVcom.chartcross.gpstest
p5225
S'Tools'
p5226
sVcom.comodo.batterysaver
p5227
S'Tools'
p5228
sVnetworld.price.app
p5229
S'Shopping'
p5230
sVcom.mcstealthapps.freshnetwork
p5231
S'Tools'
p5232
sVcom.android.printspooler
p5233
S'Unknown'
p5234
sVcom.habitflow.habitflow
p5235
S'Lifestyle'
p5236
sVcom.boatbrowser.free
p5237
S'Communication'
p5238
sVorg.cyanogenmod.theme.chooser
p5239
S'Unknown'
p5240
sVcom.sec.msc.nts.android.proxy
p5241
S'Unknown'
p5242
sVcom.mediatek.appwidget.worldclock
p5243
S'Unknown'
p5244
sVpt.sapo.mobile.android.ptwifi
p5245
S'Communication'
p5246
sVcom.tmobile.themechooser
p5247
S'Unknown'
p5248
sVcom.sbrtech.plugin.extension.videocache
p5249
S'Unknown'
p5250
sVcom.souq.app
p5251
S'Shopping'
p5252
sVcom.lookout.addetector
p5253
S'Tools'
p5254
sVcom.google.android.gm
p5255
S'Communication'
p5256
sVorg.koxx.pure_calendar
p5257
S'Productivity'
p5258
sVcom.wsandroid.suite
p5259
S'Productivity'
p5260
sVcom.dama.paperartist
p5261
S'Unknown'
p5262
sVcom.synicworld.dupacount
p5263
S'Productivity'
p5264
sVcom.denper.addonsdetector
p5265
S'Tools'
p5266
sVcom.kiwifruitmobile.sudoku
p5267
S'Board'
p5268
sVcom.almalence.opencam_plus
p5269
S'Photography'
p5270
sVcom.sec.android.provider.badge
p5271
S'Unknown'
p5272
sVcom.stac.empire.main
p5273
S'Role Playing'
p5274
sVcom.lge.sizechangable.weather
p5275
S'Unknown'
p5276
sVcom.appsilicious.wallpapers
p5277
S'Entertainment'
p5278
sVcom.xe.currency
p5279
S'Travel &amp; Local'
p5280
sVcom.sec.penup
p5281
S'Social'
p5282
sVcom.sonos.acr
p5283
S'Music &amp; Audio'
p5284
sVcom.netqin.ps
p5285
S'Business'
p5286
sVcom.sec.android.widgetapp.favoriteswidget
p5287
S'Unknown'
p5288
sVnet.teapot.widget
p5289
S'Tools'
p5290
sVcom.sonymobile.seamlesstether
p5291
S'Unknown'
p5292
sVuk.org.ngo.squeezer
p5293
S'Music &amp; Audio'
p5294
sVcom.caynax.a6w
p5295
S'Health &amp; Fitness'
p5296
sVcom.zeroneapps.battery
p5297
S'Tools'
p5298
sVch.admin.meteoswiss
p5299
S'Weather'
p5300
sVcom.versus
p5301
S'Shopping'
p5302
sVcom.rootuninstaller.taskbarw8
p5303
S'Tools'
p5304
sVcom.fonectacaller
p5305
S'Tools'
p5306
sVcom.cyanogenmod.lockclock
p5307
S'Unknown'
p5308
sVcom.google.android.GoogleCamera
p5309
S'Photography'
p5310
sVcom.google.android.apps.chromecast.app
p5311
S'Tools'
p5312
sVcom.umusic.davidlloydplaylist
p5313
S'Health &amp; Fitness'
p5314
sVcom.vectorlabs.fingerprint.lockscanner
p5315
S'Unknown'
p5316
sVcom.linedev.android.hub.pro
p5317
S'Unknown'
p5318
sVcom.motorola.targetnotif
p5319
S'Communication'
p5320
sVnet.shajul.usbotg
p5321
S'Tools'
p5322
sVcom.box.android
p5323
S'Business'
p5324
sVnet.rgruet.android.g3watchdogpro
p5325
S'Tools'
p5326
sVcom.gsamlabs.bbm.rootcompanion
p5327
S'Tools'
p5328
sVcom.motorola.audioeffects
p5329
S'Unknown'
p5330
sVcom.anda.otgdisk
p5331
S'Tools'
p5332
sVcom.pandora.android
p5333
S'Music &amp; Audio'
p5334
sVcom.vs_unusedappremover
p5335
S'Tools'
p5336
sVslide.cameraZoom
p5337
S'Photography'
p5338
sVcom.ktoonsez.KTweaker
p5339
S'Unknown'
p5340
sVcom.sec.hearingadjust
p5341
S'Unknown'
p5342
sVcom.bun.popupnotifications
p5343
S'Tools'
p5344
sVcom.gympact.android
p5345
S'Health &amp; Fitness'
p5346
sVcom.sec.android.daemonapp.ap.edaily.stockclock
p5347
S'Unknown'
p5348
sVcom.battery.saving.app
p5349
S'Unknown'
p5350
sVcom.ndrive.androidtmndrive
p5351
S'Travel &amp; Local'
p5352
sVnl.skywave.ovinfo
p5353
S'Transportation'
p5354
sVcom.accuweather.android
p5355
S'Weather'
p5356
sVcom.gameloft.android.LATAM.GloftB3HP
p5357
S'Unknown'
p5358
sVdk.mobilkunden.app
p5359
S'Tools'
p5360
sVcom.sec.readershub
p5361
S'Unknown'
p5362
sVcom.skt.iwlan
p5363
S'Unknown'
p5364
sVcom.sonyericsson.android.omacp
p5365
S'Unknown'
p5366
sVcom.rockchip.photo.appwidget
p5367
S'Unknown'
p5368
sVcom.moblynx.galleryicsold
p5369
S'Photography'
p5370
sVnet.doo.snap
p5371
S'Productivity'
p5372
sVcom.infraware.polarisoffice
p5373
S'Unknown'
p5374
sVch.smalltech.ledflashlight.pro
p5375
S'Tools'
p5376
sVcom.netgate
p5377
S'Finance'
p5378
sVcom.evsoft.frames.love1
p5379
S'Photography'
p5380
sVcom.sec.android.app.GlanceView
p5381
S'Unknown'
p5382
sVcom.chase.sig.android
p5383
S'Finance'
p5384
sVcom.trustgo.addetector
p5385
S'Tools'
p5386
sVcom.wgn.android.weather
p5387
S'Weather'
p5388
sVcom.joaomgcd.autovoice
p5389
S'Productivity'
p5390
sVcom.google.android.marvin.talkback
p5391
S'Tools'
p5392
sVcom.mobidia.android.mdm
p5393
S'Tools'
p5394
sVcom.mediatek.FMRadio
p5395
S'Unknown'
p5396
sVcom.jrdcom.torch
p5397
S'Unknown'
p5398
sVcom.TWCableTV
p5399
S'Entertainment'
p5400
sVcom.kt.olleh.storefront
p5401
S'Unknown'
p5402
sVcom.floatnote
p5403
S'Communication'
p5404
sVcom.sec.android.app.voicerecorder
p5405
S'Unknown'
p5406
sVcom.disney.PirateWars
p5407
S'Unknown'
p5408
sVcom.android.wallpaper
p5409
S'Unknown'
p5410
sVcom.inajstudios.wemineltc
p5411
S'Tools'
p5412
sVcom.grilledmonkeydonate.lagfix
p5413
S'Tools'
p5414
sVcom.sec.android.daemonapp.ap.yahoonews
p5415
S'Unknown'
p5416
sVcom.aware.plugin.weather
p5417
S'Unknown'
p5418
sVde.android.telnet
p5419
S'Tools'
p5420
sVcom.desaxedstudios.bassboosterpro
p5421
S'Music &amp; Audio'
p5422
sVcom.htc.MediaCacheService
p5423
S'Unknown'
p5424
sVcom.koushikdutta.superuser
p5425
S'Tools'
p5426
sVbbc.iplayer.android
p5427
S'Entertainment'
p5428
sVcom.siriusapplications.quickboot
p5429
S'Tools'
p5430
sVcom.onexuan.battery.pro
p5431
S'Unknown'
p5432
sVcom.sonymobile.cameracommon
p5433
S'Unknown'
p5434
sVcom.sec.android.widgetapp.notificationwidget
p5435
S'Unknown'
p5436
sVcom.miz.muzei.fivehundredpx
p5437
S'Unknown'
p5438
sVcom.alandroid.net
p5439
S'Unknown'
p5440
sVcom.freeit.java
p5441
S'Education'
p5442
sVcom.motorola.MotGallery2
p5443
S'Media &amp; Video'
p5444
sVcom.innovagency.ana
p5445
S'Transportation'
p5446
sVorg.myklos.btautoconnect
p5447
S'Communication'
p5448
sVcom.htc.calculator
p5449
S'Unknown'
p5450
sVcom.meetup
p5451
S'Social'
p5452
sVcom.microsoft.office.lync
p5453
S'Business'
p5454
sVcom.gau.golauncherex.notification
p5455
S'Communication'
p5456
sVcom.youporn
p5457
S'Unknown'
p5458
sVcom.loudweb.whatsappmediagallery
p5459
S'Tools'
p5460
sVcom.samsung.android.provider.smartclip
p5461
S'Unknown'
p5462
sVcom.fusionmedia.investing
p5463
S'Finance'
p5464
sVnet.xelnaga.exchanger
p5465
S'Finance'
p5466
sVcom.cozi.androidtmobile
p5467
S'Productivity'
p5468
sVcom.akvelon.signaltracker
p5469
S'Tools'
p5470
sVcom.caf.fmradio
p5471
S'Unknown'
p5472
sVjp.naver.linecamera.android
p5473
S'Photography'
p5474
sVcom.riteshsahu.CallLogBackupRestore
p5475
S'Tools'
p5476
sVde.amazon.mShop.android
p5477
S'Unknown'
p5478
sVcom.wetpalm.ProfileSchedulerPlus
p5479
S'Tools'
p5480
sVcom.lge.launcher2
p5481
S'Unknown'
p5482
sVmobi.beyondpod
p5483
S'News &amp; Magazines'
p5484
sVch.autoscout24.autoscout24
p5485
S'Business'
p5486
sVcom.google.android.apps.translate
p5487
S'Tools'
p5488
sVcom.yahoo.mobile.client.android.finance
p5489
S'Finance'
p5490
sVcom.sec.sprextension.phoneinfo
p5491
S'Unknown'
p5492
sVcom.htc.store
p5493
S'Unknown'
p5494
sVcom.nullsoft.prostub
p5495
S'Unknown'
p5496
sVcom.samsung.android.app.watchmanagerstub
p5497
S'Unknown'
p5498
sVcom.sec.android.EDictionary
p5499
S'Unknown'
p5500
sVcom.primatelabs.geekbench3
p5501
S'Unknown'
p5502
sVcom.sec.android.favoriteappwidget
p5503
S'Unknown'
p5504
sVcom.anydo.cal
p5505
S'Productivity'
p5506
sVnet.cactii.flash2
p5507
S'Unknown'
p5508
sVcom.samsung.drs
p5509
S'Unknown'
p5510
sVcom.ceruleanstudios.trillian.android
p5511
S'Communication'
p5512
sVcom.qualcomm.services.location
p5513
S'Unknown'
p5514
sVcom.hancom.office.hshow.viewer.hshow_viewer_apk
p5515
S'Unknown'
p5516
sVcom.pimpimmobile.atimer
p5517
S'Health &amp; Fitness'
p5518
sVcom.vodafone.vodafone360updates
p5519
S'Unknown'
p5520
sVcom.sec.android.app.callsetting
p5521
S'Unknown'
p5522
sVcom.lego.city.my_city
p5523
S'Action'
p5524
sVcom.example.testelayout
p5525
S'Unknown'
p5526
sVcom.dimonvideo.luckypatcher
p5527
S'Unknown'
p5528
sVcom.github.andlyticsproject
p5529
S'Tools'
p5530
sVcom.sec.android.app.factorymode
p5531
S'Unknown'
p5532
sVcom.ihandysoft.alarmclock
p5533
S'Tools'
p5534
sVcom.usablenet.mobile.walgreen
p5535
S'Shopping'
p5536
sVcom.skt.skaf.Z00000TAPI
p5537
S'Unknown'
p5538
sVcom.lge.gestureanswering
p5539
S'Unknown'
p5540
sVcom.pauldance.tmcr
p5541
S'Tools'
p5542
sVcom.sonyericsson.backuprestore
p5543
S'Unknown'
p5544
sVcom.redbend.vdmc
p5545
S'Unknown'
p5546
sVandroid.googleSearch.googleSearchWidget
p5547
S'Unknown'
p5548
sVcom.appuccino.frequency
p5549
S'Tools'
p5550
sVcom.htc.dotmatrix
p5551
S'Lifestyle'
p5552
sVcom.mediatek.MediatekDM
p5553
S'Unknown'
p5554
sVcom.smartgadgetz.timetracker
p5555
S'Tools'
p5556
sVtunein.player
p5557
S'Music &amp; Audio'
p5558
sVcom.passmark.pt_mobile
p5559
S'Tools'
p5560
sVcom.careerconfidential.jobqa
p5561
S'Business'
p5562
sVcom.nando86.seg60
p5563
S'Unknown'
p5564
sVnet.cdeguet.smartkeyboardpro
p5565
S'Tools'
p5566
sVcom.dragon.android.mobomarket
p5567
S'Unknown'
p5568
sVair.PenaltyCup2014
p5569
S'Unknown'
p5570
sVcom.checkpoint.VPN
p5571
S'Business'
p5572
sVcom.android.location.fused
p5573
S'Unknown'
p5574
sVcom.fmm.dm
p5575
S'Unknown'
p5576
sVcom.jrdcom.fota
p5577
S'Unknown'
p5578
sVcom.aurorasoftworks.quadrant.ui.standard
p5579
S'Tools'
p5580
sVcom.cognitial.directvremote
p5581
S'Entertainment'
p5582
sVcom.sonyericsson.conversations
p5583
S'Unknown'
p5584
sVcom.nezdroid.lockscreenprotector
p5585
S'Tools'
p5586
sVcom.lge.lgdmsclient
p5587
S'Unknown'
p5588
sVcom.sonyericsson.android.socialphonebook
p5589
S'Unknown'
p5590
sVcom.clapfootgames.tennis
p5591
S'Sports'
p5592
sVcom.htc.htcpowermanager
p5593
S'Unknown'
p5594
sVcom.sec.android.app.mt
p5595
S'Unknown'
p5596
sVcom.pantech.app.dlna
p5597
S'Unknown'
p5598
sVcom.sec.android.RilServiceModeApp
p5599
S'Unknown'
p5600
sVcom.interfacom.taxiclick
p5601
S'Travel &amp; Local'
p5602
sVmohammad.adib.sidebar
p5603
S'Tools'
p5604
sVcom.sec.knox.containeragent
p5605
S'Unknown'
p5606
sVcom.safely.go.driver.safety.stop.texting.driving
p5607
S'Lifestyle'
p5608
sVcom.freecloud.StackTheStates
p5609
S'Education'
p5610
sVcom.topfreegames.bikeracefreeworld
p5611
S'Action'
p5612
sVorg.peterbaldwin.client.android.vlcremote
p5613
S'Unknown'
p5614
sVjp.tomorrowkey.android.screencaptureshortcutfree
p5615
S'Tools'
p5616
sVcom.riteshsahu.SMSBackupRestorePro
p5617
S'Tools'
p5618
sVcom.mandy.kitkatwallpapers
p5619
S'Personalization'
p5620
sVcom.lge.hiddenmenu
p5621
S'Unknown'
p5622
sVcom.indeed.android.jobsearch
p5623
S'Business'
p5624
sVpl.krzemdev.dogebreeding
p5625
S'Arcade'
p5626
s.